LX51 LINKER/LOCATER V4.09                                                               09/01/2010  15:06:34  PAGE 1


LX51 LINKER/LOCATER V4.09, INVOKED BY:
C:\KEIL\C51\BIN\LX51.EXE ANALOG.obj, ARP.obj, HTTP.obj, ICMP.obj, IP.obj, MAIN.obj, TCP.obj, TIMER.obj, UDP.obj, CKSUM.o
>> bj, WEBDOC1.obj, CP220x_REG.obj TO Web52


CPU MODE:     8051 MODE
MEMORY MODEL: SMALL WITH FLOATING POINT ARITHMETIC


INPUT MODULES INCLUDED:
  ANALOG.obj (ANALOG)
         COMMENT TYPE 0: C51 V8.05a
  ARP.obj (ARP)
         COMMENT TYPE 0: C51 V8.05a
  HTTP.obj (HTTP)
         COMMENT TYPE 0: C51 V8.05a
  ICMP.obj (ICMP)
         COMMENT TYPE 0: C51 V8.05a
  IP.obj (IP)
         COMMENT TYPE 0: C51 V8.05a
  MAIN.obj (MAIN)
         COMMENT TYPE 0: C51 V8.05a
  TCP.obj (TCP)
         COMMENT TYPE 0: C51 V8.05a
  TIMER.obj (TIMER)
         COMMENT TYPE 0: C51 V8.05a
  UDP.obj (UDP)
         COMMENT TYPE 0: C51 V8.05a
  CKSUM.obj (CKSUM)
         COMMENT TYPE 0: C51 V8.05a
  WEBDOC1.obj (WEBDOC1)
         COMMENT TYPE 0: C51 V8.05a
  CP220x_REG.obj (CP220X_REG)
         COMMENT TYPE 0: C51 V8.05a
  C:\KEIL\C51\LIB\C51FPS.LIB (?C?FPMUL)
         COMMENT TYPE 1: A51 / ASM51 Assembler
  C:\KEIL\C51\LIB\C51FPS.LIB (?C?FPDIV)
         COMMENT TYPE 1: A51 / ASM51 Assembler
  C:\KEIL\C51\LIB\C51FPS.LIB (?C?FCAST)
         COMMENT TYPE 1: A51 / ASM51 Assembler
  C:\KEIL\C51\LIB\C51FPS.LIB (?C?CASTF)
         COMMENT TYPE 1: A51 / ASM51 Assembler
  C:\KEIL\C51\LIB\C51FPS.LIB (?C?FPGETOPN)
         COMMENT TYPE 1: A51 / ASM51 Assembler
  C:\KEIL\C51\LIB\C51S.LIB (?C_STARTUP)
         COMMENT TYPE 1: A51 / ASM51 Assembler
  C:\KEIL\C51\LIB\C51S.LIB (?C?COPY)
         COMMENT TYPE 1: A51 / ASM51 Assembler
  C:\KEIL\C51\LIB\C51S.LIB (?C?CLDPTR)
         COMMENT TYPE 1: A51 / ASM51 Assembler
  C:\KEIL\C51\LIB\C51S.LIB (?C?CLDOPTR)
         COMMENT TYPE 1: A51 / ASM51 Assembler
  C:\KEIL\C51\LIB\C51S.LIB (?C?CSTPTR)
         COMMENT TYPE 1: A51 / ASM51 Assembler
  C:\KEIL\C51\LIB\C51S.LIB (?C?CSTOPTR)
         COMMENT TYPE 1: A51 / ASM51 Assembler
  C:\KEIL\C51\LIB\C51S.LIB (?C?IMUL)
         COMMENT TYPE 1: A51 / ASM51 Assembler
  C:\KEIL\C51\LIB\C51S.LIB (?C?UIDIV)
         COMMENT TYPE 1: A51 / ASM51 Assembler
  C:\KEIL\C51\LIB\C51S.LIB (?C?SIDIV)
         COMMENT TYPE 1: A51 / ASM51 Assembler
  C:\KEIL\C51\LIB\C51S.LIB (?C?LNEG)
         COMMENT TYPE 1: A51 / ASM51 Assembler
  C:\KEIL\C51\LIB\C51S.LIB (?C?ULCMP)
         COMMENT TYPE 1: A51 / ASM51 Assembler
LX51 LINKER/LOCATER V4.09                                                             09/01/2010  15:06:34  PAGE 2


  C:\KEIL\C51\LIB\C51S.LIB (?C?ULSHR)
         COMMENT TYPE 1: A51 / ASM51 Assembler
  C:\KEIL\C51\LIB\C51S.LIB (?C?LLDOPTR)
         COMMENT TYPE 1: A51 / ASM51 Assembler
  C:\KEIL\C51\LIB\C51S.LIB (?C?LLDIDATA)
         COMMENT TYPE 1: A51 / ASM51 Assembler
  C:\KEIL\C51\LIB\C51S.LIB (?C?LLDCODE)
         COMMENT TYPE 1: A51 / ASM51 Assembler
  C:\KEIL\C51\LIB\C51S.LIB (?C?LLDIDATA0)
         COMMENT TYPE 1: A51 / ASM51 Assembler
  C:\KEIL\C51\LIB\C51S.LIB (?C?LLDCODE0)
         COMMENT TYPE 1: A51 / ASM51 Assembler
  C:\KEIL\C51\LIB\C51S.LIB (?C?LSTIDATA)
         COMMENT TYPE 1: A51 / ASM51 Assembler
  C:\KEIL\C51\LIB\C51S.LIB (?C?LSTXDATA)
         COMMENT TYPE 1: A51 / ASM51 Assembler
  C:\KEIL\C51\LIB\C51S.LIB (?C?LSTKIDATA)
         COMMENT TYPE 1: A51 / ASM51 Assembler
  C:\KEIL\C51\LIB\C51S.LIB (?C?LSTKXDATA)
         COMMENT TYPE 1: A51 / ASM51 Assembler
  C:\KEIL\C51\LIB\C51S.LIB (?C?ICASE)
         COMMENT TYPE 1: A51 / ASM51 Assembler
  C:\KEIL\C51\LIB\C51S.LIB (STRLEN)
         COMMENT TYPE 1: A51 / ASM51 Assembler
  C:\KEIL\C51\LIB\C51S.LIB (?C?MEMSET)
         COMMENT TYPE 1: A51 / ASM51 Assembler
  C:\KEIL\C51\LIB\C51S.LIB (?C?MEMMOVE)
         COMMENT TYPE 1: A51 / ASM51 Assembler
  C:\KEIL\C51\LIB\C51S.LIB (?C_INIT)
         COMMENT TYPE 1: A51 / ASM51 Assembler
  C:\KEIL\C51\LIB\C51S.LIB (?C?LLDXDATA)
         COMMENT TYPE 1: A51 / ASM51 Assembler
  C:\KEIL\C51\LIB\C51S.LIB (?C?LLDPDATA)
         COMMENT TYPE 1: A51 / ASM51 Assembler


ACTIVE MEMORY CLASSES OF MODULE:  Web52 (ANALOG)

BASE        START       END         USED      MEMORY CLASS
==========================================================
C:000000H   C:000000H   C:00FFFFH   002D22H   CODE
I:000000H   I:000000H   I:0000FFH   00003EH   IDATA
I:000000H   I:000000H   I:00007FH   000075H   DATA
X:000000H   X:000000H   X:00FFFFH   000DAFH   XDATA
I:000020H.0 I:000020H.0 I:00002FH.7 000000H.3 BIT
C:000000H   C:000000H   C:00FFFFH   005674H   CONST


MEMORY MAP OF MODULE:  Web52 (ANALOG)


START     STOP      LENGTH    ALIGN  RELOC    MEMORY CLASS   SEGMENT NAME
=========================================================================

* * * * * * * * * * *   D A T A   M E M O R Y   * * * * * * * * * * * * *
000000H   000007H   000008H   ---    AT..     DATA           "REG BANK 0"
000008H   000011H   00000AH   BYTE   UNIT     DATA           ?DT?ANALOG
000012H   00001AH   000009H   BYTE   UNIT     DATA           ?DT?MAIN
00001BH   00001EH   000004H   BYTE   UNIT     DATA           ?DT?TIMER
00001FH   00001FH   000001H   BYTE   UNIT     DATA           ?DT?ARP
000020H.0 000020H.1 000000H.2 BIT    UNIT     BIT            _BIT_GROUP_
000020H.2 000020H.2 000000H.1 BIT    UNIT     BIT            ?BI?HTTP
000020H.3 000020H   000000H.5 ---    ---      **GAP**
000021H   000073H   000053H   BYTE   UNIT     DATA           _DATA_GROUP_
000074H   000075H   000002H   BYTE   UNIT     DATA           ?DT?IP
LX51 LINKER/LOCATER V4.09                                                             09/01/2010  15:06:34  PAGE 3


000076H   00009BH   000026H   BYTE   UNIT     IDATA          _IDATA_GROUP_
00009CH   0000A6H   00000BH   BYTE   UNIT     IDATA          ?ID?ANALOG
0000A7H   0000ACH   000006H   BYTE   UNIT     IDATA          ?ID?TCP
0000ADH   0000B0H   000004H   BYTE   UNIT     IDATA          ?ID?MAIN
0000B1H   0000B1H   000001H   BYTE   UNIT     IDATA          ?ID?ARP
0000B2H   0000B2H   000001H   BYTE   UNIT     IDATA          ?ID?HTTP
0000B3H   0000B3H   000001H   BYTE   UNIT     IDATA          ?STACK

* * * * * * * * * * *   C O D E   M E M O R Y   * * * * * * * * * * * * *
000000H   000002H   000003H   ---    OFFS..   CODE           ?CO??C_STARTUP?0
000003H   000008H   000006H   BYTE   UNIT     CODE           ?CO?ANALOG
000009H   000009H   000001H   BYTE   UNIT     CODE           ?PR?CP220X_RST_LOW?MAIN
00000AH   00000AH   000001H   BYTE   UNIT     CODE           ?PR?CP220X_RST_HIGH?MAIN
00000BH   00000DH   000003H   BYTE   OFFS..   CODE           ?MAIN?0000B
00000EH   000022H   000015H   BYTE   UNIT     CODE           ?PR?_STRLEN?STRLEN
000023H   000025H   000003H   BYTE   OFFS..   CODE           ?MAIN?00023
000026H   000028H   000003H   BYTE   UNIT     CODE           ?PR?LIGHTONOFF?MAIN
000029H   00002AH   000002H   ---    ---      **GAP**
00002BH   00002DH   000003H   BYTE   OFFS..   CODE           ?TIMER?0002B
00002EH   0007AFH   000782H   BYTE   UNIT     CODE           ?C?LIB_CODE
0007B0H   000C1DH   00046EH   BYTE   UNIT     CODE           ?PR?_TCP_RCVE?TCP
000C1EH   000FF9H   0003DCH   BYTE   UNIT     CODE           ?PR?_HTTP_SERVER?HTTP
000FFAH   0011B5H   0001BCH   BYTE   UNIT     CODE           ?PR?TCP
0011B6H   001353H   00019EH   BYTE   UNIT     CODE           ?PR?_TCP_SEND?TCP
001354H   0014D3H   000180H   BYTE   UNIT     CODE           ?PR?_ARP_RCVE?ARP
0014D4H   00161FH   00014CH   BYTE   UNIT     CODE           ?PR?_HTTP_SEND?HTTP
001620H   001735H   000116H   BYTE   UNIT     CODE           ?PR?_IP_RCVE?IP
001736H   001844H   00010FH   BYTE   UNIT     CODE           ?PR?_UDP_SEND?UDP
001845H   00194FH   00010BH   BYTE   UNIT     CODE           ?PR?HTTP
001950H   001A4EH   0000FFH   BYTE   UNIT     CODE           ?PR?_IP_SEND?IP
001A4FH   001B49H   0000FBH   BYTE   UNIT     CODE           ?PR?MAIN?MAIN
001B4AH   001C21H   0000D8H   BYTE   UNIT     CODE           ?PR?_ARP_SEND?ARP
001C22H   001CF4H   0000D3H   BYTE   UNIT     CODE           ?PR?TCP_RETRANSMIT?TCP
001CF5H   001DC2H   0000CEH   BYTE   UNIT     CODE           ?PR?_UDP_RCVE?UDP
001DC3H   001E7DH   0000BBH   BYTE   UNIT     CODE           ?PR?ARP
001E7EH   001F33H   0000B6H   BYTE   UNIT     CODE           ?PR?MAC_INIT?MAIN
001F34H   001FE5H   0000B2H   BYTE   UNIT     CODE           ?PR?READ_ANALOG_INPUTS?ANALOG
001FE6H   002093H   0000AEH   BYTE   UNIT     CODE           ?PR?_ITOA?HTTP
002094H   002141H   0000AEH   BYTE   UNIT     CODE           ?PR?_CKSUM?CKSUM
002142H   0021EEH   0000ADH   BYTE   UNIT     CODE           ?PR?TIMER2_INTERRUPT?TIMER
0021EFH   002296H   0000A8H   BYTE   UNIT     CODE           ?PR?_PING_SEND?ICMP
002297H   00233EH   0000A8H   BYTE   UNIT     CODE           ?PR?RCVE_FRAME?MAIN
00233FH   0023DDH   00009FH   BYTE   UNIT     CODE           ?PR?_ARP_RESOLVE?ARP
0023DEH   002476H   000099H   BYTE   UNIT     CODE           ?PR?_DEST_UNREACH_SEND?ICMP
002477H   002504H   00008EH   BYTE   UNIT     CODE           ?PR?_INT2STR?MAIN
002505H   002590H   00008CH   BYTE   UNIT     CODE           ?C_C51STARTUP
002591H   002613H   000083H   BYTE   UNIT     CODE           ?PR?_CP220X_SEND?MAIN
002614H   002693H   000080H   BYTE   UNIT     CODE           ?PR?UDP
002694H   00270AH   000077H   BYTE   UNIT     CODE           ?PR?_STRSTR?HTTP
00270BH   002773H   000069H   BYTE   UNIT     CODE           ?PR?_REPLACE_TAG?HTTP
002774H   0027DCH   000069H   BYTE   UNIT     CODE           ?PR?TCP_INACTIVITY?TCP
0027DDH   002840H   000064H   BYTE   UNIT     CODE           ?PR?_ICMP_RCVE?ICMP
002841H   0028A3H   000063H   BYTE   UNIT     CODE           ?PR?PHY_INIT?MAIN
0028A4H   002902H   00005FH   BYTE   UNIT     CODE           ?CO?HTTP
002903H   00294BH   000049H   BYTE   UNIT     CODE           ?PR?TIMER0_ISR?MAIN
00294CH   002992H   000047H   BYTE   UNIT     CODE           ?PR?_ETH_SEND?MAIN
002993H   0029D6H   000044H   BYTE   UNIT     CODE           ?PR?AGE_ARP_CACHE?ARP
0029D7H   002A1AH   000044H   BYTE   UNIT     CODE           ?PR?MAIN
002A1BH   002A5BH   000041H   BYTE   UNIT     CODE           ?PR?_ETH_RCVE?MAIN
002A5CH   002A94H   000039H   BYTE   UNIT     CODE           ?PR?ARP_RETRANSMIT?ARP
002A95H   002ACDH   000039H   BYTE   UNIT     CODE           ?PR?_MAC_SETADDRESS?MAIN
002ACEH   002B04H   000037H   BYTE   UNIT     CODE           ?PR?SYSCLK_INIT?MAIN
002B05H   002B35H   000031H   BYTE   UNIT     CODE           ?PR?PORT_INIT?MAIN
002B36H   002B64H   00002FH   BYTE   UNIT     CODE           ?PR?ANALOG
002B65H   002B91H   00002DH   BYTE   UNIT     CODE           ?PR?IP
LX51 LINKER/LOCATER V4.09                                                             09/01/2010  15:06:34  PAGE 4


002B92H   002BB8H   000027H   BYTE   UNIT     CODE           ?C_INITSEG
002BB9H   002BDFH   000027H   BYTE   UNIT     CODE           ?PR?ICMP
002BE0H   002C01H   000022H   BYTE   UNIT     CODE           ?PR?SERIAL?MAIN
002C02H   002C1DH   00001CH   BYTE   UNIT     CODE           ?PR?_MAC_WRITE?MAIN
002C1EH   002C39H   00001CH   BYTE   UNIT     CODE           ?PR?INIT_TCP?TCP
002C3AH   002C54H   00001BH   BYTE   UNIT     CODE           ?PR?INIT_MAIN?MAIN
002C55H   002C6EH   00001AH   BYTE   UNIT     CODE           ?PR?TIMER0_INIT?MAIN
002C6FH   002C88H   00001AH   BYTE   UNIT     CODE           ?PR?_SENDSTRING?MAIN
002C89H   002CA0H   000018H   BYTE   UNIT     CODE           ?CO?MAIN
002CA1H   002CB6H   000016H   BYTE   UNIT     CODE           ?PR?INIT_ARP?ARP
002CB7H   002CCCH   000016H   BYTE   UNIT     CODE           ?PR?UART0_INIT?MAIN
002CCDH   002CE0H   000014H   BYTE   UNIT     CODE           ?PR?INIT_ADC?ANALOG
002CE1H   002CF2H   000012H   BYTE   UNIT     CODE           ?PR?CKSUM
002CF3H   002D02H   000010H   BYTE   UNIT     CODE           ?PR?INIT_TIMER2?TIMER
002D03H   002D0FH   00000DH   BYTE   UNIT     CODE           ?PR?_DELAY1MS?MAIN
002D10H   002D1AH   00000BH   BYTE   UNIT     CODE           ?PR?_UDP_ECHO_SERVICE?UDP
002D1BH   002D23H   000009H   BYTE   UNIT     CODE           ?PR?INIT_HTTP?HTTP
002D24H   00838DH   00566AH   BYTE   UNIT     CONST          ?CO?WEBDOC1
00838EH   008397H   00000AH   BYTE   UNIT     CONST          ?CO?TCP

* * * * * * * * * * *  X D A T A   M E M O R Y  * * * * * * * * * * * * *
000000H   0000E6H   0000E7H   BYTE   UNIT     XDATA          ?XD?TCP
0000E7H   000154H   00006EH   BYTE   UNIT     XDATA          ?XD?ARP
000155H   000174H   000020H   BYTE   UNIT     XDATA          ?XD?MAIN
000175H   00017EH   00000AH   BYTE   UNIT     XDATA          ?XD?IP
00017FH   000184H   000006H   BYTE   UNIT     XDATA          ?XD?UDP
000185H   0003E7H   000263H   ---    ---      **GAP**
0003E8H   0009C3H   0005DCH   BYTE   OFFS..   XDATA          ?XD?MAIN?0
0009C4H   000F9FH   0005DCH   BYTE   OFFS..   XDATA          ?XD?MAIN?1
000FA0H   003F00H   002F61H   ---    ---      **GAP**
003F01H   003F01H   000001H   BYTE   OFFS..   XDATA          ?XD?CP220X_REG?111
003F02H   003F02H   000001H   BYTE   OFFS..   XDATA          ?XD?CP220X_REG?40
003F03H   003F03H   000001H   BYTE   OFFS..   XDATA          ?XD?CP220X_REG?27
003F04H   003F04H   000001H   BYTE   OFFS..   XDATA          ?XD?CP220X_REG?41
003F05H   003F05H   000001H   BYTE   OFFS..   XDATA          ?XD?CP220X_REG?65
003F06H   003F06H   000001H   BYTE   OFFS..   XDATA          ?XD?CP220X_REG?15
003F07H   003F07H   000001H   ---    ---      **GAP**
003F08H   003F08H   000001H   BYTE   OFFS..   XDATA          ?XD?CP220X_REG?73
003F09H   003F09H   000001H   BYTE   OFFS..   XDATA          ?XD?CP220X_REG?80
003F0AH   003F0AH   000001H   BYTE   OFFS..   XDATA          ?XD?CP220X_REG?95
003F0BH   003F0BH   000001H   BYTE   OFFS..   XDATA          ?XD?CP220X_REG?48
003F0CH   003F0CH   000001H   BYTE   OFFS..   XDATA          ?XD?CP220X_REG?50
003F0DH   003F0DH   000001H   BYTE   OFFS..   XDATA          ?XD?CP220X_REG?107
003F0EH   003F0EH   000001H   BYTE   OFFS..   XDATA          ?XD?CP220X_REG?34
003F0FH   003F0FH   000001H   BYTE   OFFS..   XDATA          ?XD?CP220X_REG?36
003F10H   003F10H   000001H   BYTE   OFFS..   XDATA          ?XD?CP220X_REG?91
003F11H   003F11H   000001H   BYTE   OFFS..   XDATA          ?XD?CP220X_REG?53
003F12H   003F12H   000001H   BYTE   OFFS..   XDATA          ?XD?CP220X_REG?32
003F13H   003F13H   000001H   BYTE   OFFS..   XDATA          ?XD?CP220X_REG?103
003F14H   003F14H   000001H   ---    ---      **GAP**
003F15H   003F15H   000001H   BYTE   OFFS..   XDATA          ?XD?CP220X_REG?69
003F16H   003F16H   000001H   BYTE   OFFS..   XDATA          ?XD?CP220X_REG?78
003F17H   003F17H   000001H   BYTE   OFFS..   XDATA          ?XD?CP220X_REG?42
003F18H   003F18H   000001H   BYTE   OFFS..   XDATA          ?XD?CP220X_REG?44
003F19H   003F19H   000001H   ---    ---      **GAP**
003F1AH   003F1AH   000001H   BYTE   OFFS..   XDATA          ?XD?CP220X_REG?98
003F1BH   003F1BH   000001H   ---    ---      **GAP**
003F1CH   003F1CH   000001H   BYTE   OFFS..   XDATA          ?XD?CP220X_REG?85
003F1DH   003F1DH   000001H   BYTE   OFFS..   XDATA          ?XD?CP220X_REG?12
003F1EH   003F1EH   000001H   BYTE   OFFS..   XDATA          ?XD?CP220X_REG?19
003F1FH   003F1FH   000001H   BYTE   OFFS..   XDATA          ?XD?CP220X_REG?52
003F20H   003F20H   000001H   BYTE   OFFS..   XDATA          ?XD?CP220X_REG?60
003F21H   003F21H   000001H   BYTE   OFFS..   XDATA          ?XD?CP220X_REG?100
003F22H   003F22H   000001H   BYTE   OFFS..   XDATA          ?XD?CP220X_REG?110
003F23H   003F23H   000001H   BYTE   OFFS..   XDATA          ?XD?CP220X_REG?11
LX51 LINKER/LOCATER V4.09                                                             09/01/2010  15:06:34  PAGE 5


003F24H   003F24H   000001H   BYTE   OFFS..   XDATA          ?XD?CP220X_REG?18
003F25H   003F25H   000001H   BYTE   OFFS..   XDATA          ?XD?CP220X_REG?51
003F26H   003F26H   000001H   BYTE   OFFS..   XDATA          ?XD?CP220X_REG?59
003F27H   003F27H   000001H   BYTE   OFFS..   XDATA          ?XD?CP220X_REG?99
003F28H   003F28H   000001H   BYTE   OFFS..   XDATA          ?XD?CP220X_REG?109
003F29H   003F29H   000001H   BYTE   OFFS..   XDATA          ?XD?CP220X_REG?13
003F2AH   003F2AH   000001H   BYTE   OFFS..   XDATA          ?XD?CP220X_REG?22
003F2BH   003F2BH   000001H   BYTE   OFFS..   XDATA          ?XD?CP220X_REG?54
003F2CH   003F2CH   000001H   BYTE   OFFS..   XDATA          ?XD?CP220X_REG?62
003F2DH   003F2DH   000001H   BYTE   OFFS..   XDATA          ?XD?CP220X_REG?102
003F2EH   003F2EH   000001H   BYTE   OFFS..   XDATA          ?XD?CP220X_REG?113
003F2FH   003F2FH   000001H   BYTE   OFFS..   XDATA          ?XD?CP220X_REG?14
003F30H   003F30H   000001H   BYTE   OFFS..   XDATA          ?XD?CP220X_REG?24
003F31H   003F31H   000001H   BYTE   OFFS..   XDATA          ?XD?CP220X_REG?56
003F32H   003F32H   000001H   BYTE   OFFS..   XDATA          ?XD?CP220X_REG?64
003F33H   003F33H   000001H   BYTE   OFFS..   XDATA          ?XD?CP220X_REG?104
003F34H   003F34H   000001H   BYTE   OFFS..   XDATA          ?XD?CP220X_REG?1
003F35H   003F35H   000001H   BYTE   OFFS..   XDATA          ?XD?CP220X_REG?16
003F36H   003F36H   000001H   BYTE   OFFS..   XDATA          ?XD?CP220X_REG?26
003F37H   003F37H   000001H   BYTE   OFFS..   XDATA          ?XD?CP220X_REG?57
003F38H   003F38H   000001H   BYTE   OFFS..   XDATA          ?XD?CP220X_REG?67
003F39H   003F39H   000001H   BYTE   OFFS..   XDATA          ?XD?CP220X_REG?106
003F3AH   003F3AH   000001H   BYTE   OFFS..   XDATA          ?XD?CP220X_REG?3
003F3BH   003F3BH   000001H   BYTE   OFFS..   XDATA          ?XD?CP220X_REG?17
003F3CH   003F3CH   000001H   BYTE   OFFS..   XDATA          ?XD?CP220X_REG?28
003F3DH   003F3DH   000001H   BYTE   OFFS..   XDATA          ?XD?CP220X_REG?58
003F3EH   003F3EH   000001H   BYTE   OFFS..   XDATA          ?XD?CP220X_REG?68
003F3FH   003F3FH   000001H   BYTE   OFFS..   XDATA          ?XD?CP220X_REG?108
003F40H   003F40H   000001H   BYTE   OFFS..   XDATA          ?XD?CP220X_REG?4
003F41H   003F41H   000001H   BYTE   OFFS..   XDATA          ?XD?CP220X_REG?21
003F42H   003F42H   000001H   BYTE   OFFS..   XDATA          ?XD?CP220X_REG?29
003F43H   003F43H   000001H   BYTE   OFFS..   XDATA          ?XD?CP220X_REG?61
003F44H   003F44H   000001H   BYTE   OFFS..   XDATA          ?XD?CP220X_REG?70
003F45H   003F45H   000001H   BYTE   OFFS..   XDATA          ?XD?CP220X_REG?112
003F46H   003F46H   000001H   BYTE   OFFS..   XDATA          ?XD?CP220X_REG?5
003F47H   003F47H   000001H   BYTE   OFFS..   XDATA          ?XD?CP220X_REG?23
003F48H   003F48H   000001H   BYTE   OFFS..   XDATA          ?XD?CP220X_REG?31
003F49H   003F49H   000001H   BYTE   OFFS..   XDATA          ?XD?CP220X_REG?63
003F4AH   003F4AH   000001H   BYTE   OFFS..   XDATA          ?XD?CP220X_REG?72
003F4BH   003F4BH   000001H   BYTE   OFFS..   XDATA          ?XD?CP220X_REG?0
003F4CH   003F4CH   000001H   BYTE   OFFS..   XDATA          ?XD?CP220X_REG?6
003F4DH   003F4DH   000001H   BYTE   OFFS..   XDATA          ?XD?CP220X_REG?25
003F4EH   003F4EH   000001H   BYTE   OFFS..   XDATA          ?XD?CP220X_REG?33
003F4FH   003F4FH   000001H   BYTE   OFFS..   XDATA          ?XD?CP220X_REG?66
003F50H   003F50H   000001H   BYTE   OFFS..   XDATA          ?XD?CP220X_REG?75
003F51H   003F51H   000001H   BYTE   OFFS..   XDATA          ?XD?CP220X_REG?2
003F52H   003F52H   000001H   BYTE   OFFS..   XDATA          ?XD?CP220X_REG?8
003F53H   003F53H   000001H   BYTE   OFFS..   XDATA          ?XD?CP220X_REG?55
003F54H   003F54H   000001H   BYTE   OFFS..   XDATA          ?XD?CP220X_REG?96
003F55H   003F55H   000001H   BYTE   OFFS..   XDATA          ?XD?CP220X_REG?97
003F56H   003F56H   000001H   BYTE   OFFS..   XDATA          ?XD?CP220X_REG?101
003F57H   003F57H   000001H   BYTE   OFFS..   XDATA          ?XD?CP220X_REG?83
003F58H   003F58H   000001H   BYTE   OFFS..   XDATA          ?XD?CP220X_REG?84
003F59H   003F59H   000001H   BYTE   OFFS..   XDATA          ?XD?CP220X_REG?9
003F5AH   003F5AH   000001H   BYTE   OFFS..   XDATA          ?XD?CP220X_REG?10
003F5BH   003F5BH   000001H   BYTE   OFFS..   XDATA          ?XD?CP220X_REG?49
003F5CH   003F5CH   000001H   BYTE   OFFS..   XDATA          ?XD?CP220X_REG?82
003F5DH   003F5DH   000001H   BYTE   OFFS..   XDATA          ?XD?CP220X_REG?81
003F5EH   003F5EH   000001H   BYTE   OFFS..   XDATA          ?XD?CP220X_REG?79
003F5FH   003F5FH   000001H   BYTE   OFFS..   XDATA          ?XD?CP220X_REG?77
003F60H   003F60H   000001H   BYTE   OFFS..   XDATA          ?XD?CP220X_REG?76
003F61H   003F61H   000001H   BYTE   OFFS..   XDATA          ?XD?CP220X_REG?74
003F62H   003F62H   000001H   BYTE   OFFS..   XDATA          ?XD?CP220X_REG?71
003F63H   003F63H   000001H   BYTE   OFFS..   XDATA          ?XD?CP220X_REG?35
003F64H   003F64H   000001H   BYTE   OFFS..   XDATA          ?XD?CP220X_REG?43
LX51 LINKER/LOCATER V4.09                                                             09/01/2010  15:06:34  PAGE 6


003F65H   003F66H   000002H   ---    ---      **GAP**
003F67H   003F67H   000001H   BYTE   OFFS..   XDATA          ?XD?CP220X_REG?89
003F68H   003F68H   000001H   BYTE   OFFS..   XDATA          ?XD?CP220X_REG?88
003F69H   003F69H   000001H   BYTE   OFFS..   XDATA          ?XD?CP220X_REG?86
003F6AH   003F6AH   000001H   BYTE   OFFS..   XDATA          ?XD?CP220X_REG?93
003F6BH   003F6FH   000005H   ---    ---      **GAP**
003F70H   003F70H   000001H   BYTE   OFFS..   XDATA          ?XD?CP220X_REG?30
003F71H   003F71H   000001H   ---    ---      **GAP**
003F72H   003F72H   000001H   BYTE   OFFS..   XDATA          ?XD?CP220X_REG?20
003F73H   003F73H   000001H   BYTE   OFFS..   XDATA          ?XD?CP220X_REG?94
003F74H   003F74H   000001H   ---    ---      **GAP**
003F75H   003F75H   000001H   BYTE   OFFS..   XDATA          ?XD?CP220X_REG?38
003F76H   003F76H   000001H   BYTE   OFFS..   XDATA          ?XD?CP220X_REG?46
003F77H   003F77H   000001H   ---    ---      **GAP**
003F78H   003F78H   000001H   BYTE   OFFS..   XDATA          ?XD?CP220X_REG?7
003F79H   003F79H   000001H   BYTE   OFFS..   XDATA          ?XD?CP220X_REG?105
003F7AH   003F7AH   000001H   BYTE   OFFS..   XDATA          ?XD?CP220X_REG?39
003F7BH   003F7BH   000001H   BYTE   OFFS..   XDATA          ?XD?CP220X_REG?87
003F7CH   003F7CH   000001H   BYTE   OFFS..   XDATA          ?XD?CP220X_REG?92
003F7DH   003F7DH   000001H   BYTE   OFFS..   XDATA          ?XD?CP220X_REG?45
003F7EH   003F7EH   000001H   BYTE   OFFS..   XDATA          ?XD?CP220X_REG?47
003F7FH   003F7FH   000001H   BYTE   OFFS..   XDATA          ?XD?CP220X_REG?37
003F80H   003F80H   000001H   BYTE   OFFS..   XDATA          ?XD?CP220X_REG?90



OVERLAY MAP OF MODULE:   Web52 (ANALOG)


FUNCTION/MODULE                 BIT_GROUP   DATA_GROUP   IDATA_GROUP
--> CALLED FUNCTION/MODULE     START  STOP  START  STOP  START  STOP
====================================================================
SERIAL/MAIN                    ----- -----  ----- -----  ----- -----

*** NEW ROOT *****************

TIMER0_ISR/MAIN                ----- -----  ----- -----  ----- -----

*** NEW ROOT *****************

TIMER2_INTERRUPT/TIMER         ----- -----  ----- -----  ----- -----

*** NEW ROOT *****************

?C_C51STARTUP                  ----- -----  ----- -----  ----- -----
  +--> ?PR?MAIN?MAIN
  +--> ?C_INITSEG

MAIN/MAIN                      ----- -----  0021H 0025H  ----- -----
  +--> ?PR?SYSCLK_INIT?MAIN
  +--> ?PR?TIMER0_INIT?MAIN
  +--> ?PR?PORT_INIT?MAIN
  +--> ?PR?UART0_INIT?MAIN
  +--> ?PR?INIT_TIMER2?TIMER
  +--> ?PR?INIT_MAIN?MAIN
  +--> ?PR?INIT_TCP?TCP
  +--> ?PR?INIT_HTTP?HTTP
  +--> ?PR?INIT_ADC?ANALOG
  +--> ?PR?INIT_ARP?ARP
  +--> ?PR?CP220X_RST_LOW?MAIN
  +--> ?PR?_DELAY1MS?MAIN
  +--> ?PR?CP220X_RST_HIGH?MAIN
  +--> ?PR?PHY_INIT?MAIN
  +--> ?PR?MAIN
  +--> ?PR?MAC_INIT?MAIN
LX51 LINKER/LOCATER V4.09                                                             09/01/2010  15:06:34  PAGE 7


  +--> ?CO?MAIN
  +--> ?PR?_SENDSTRING?MAIN
  +--> ?PR?RCVE_FRAME?MAIN
  +--> ?PR?_ETH_RCVE?MAIN
  +--> ?PR?TCP_RETRANSMIT?TCP
  +--> ?PR?TCP_INACTIVITY?TCP
  +--> ?PR?ARP_RETRANSMIT?ARP
  +--> ?PR?AGE_ARP_CACHE?ARP
  +--> ?PR?READ_ANALOG_INPUTS?ANALOG

SYSCLK_INIT/MAIN               ----- -----  ----- -----  ----- -----

TIMER0_INIT/MAIN               ----- -----  ----- -----  ----- -----

PORT_INIT/MAIN                 ----- -----  ----- -----  ----- -----

UART0_INIT/MAIN                ----- -----  ----- -----  ----- -----

INIT_TIMER2/TIMER              ----- -----  ----- -----  ----- -----

INIT_MAIN/MAIN                 ----- -----  ----- -----  ----- -----

INIT_TCP/TCP                   ----- -----  ----- -----  ----- -----

INIT_HTTP/HTTP                 ----- -----  ----- -----  ----- -----
  +--> ?PR?LIGHTONOFF?MAIN

LIGHTONOFF/MAIN                20H.0 20H.0  ----- -----  ----- -----

INIT_ADC/ANALOG                ----- -----  ----- -----  ----- -----

INIT_ARP/ARP                   ----- -----  ----- -----  ----- -----
  +--> ?PR?ARP

ARP                            ----- -----  ----- -----  ----- -----

CP220X_RST_LOW/MAIN            ----- -----  ----- -----  ----- -----

_DELAY1MS/MAIN                 ----- -----  ----- -----  ----- -----

CP220X_RST_HIGH/MAIN           ----- -----  ----- -----  ----- -----

PHY_INIT/MAIN                  ----- -----  ----- -----  ----- -----
  +--> ?PR?MAIN
  +--> ?PR?_DELAY1MS?MAIN

MAIN                           ----- -----  ----- -----  ----- -----
  +--> ?PR?_DELAY1MS?MAIN

MAC_INIT/MAIN                  ----- -----  ----- -----  ----- -----
  +--> ?PR?_MAC_WRITE?MAIN
  +--> ?PR?_MAC_SETADDRESS?MAIN

_MAC_WRITE/MAIN                ----- -----  ----- -----  ----- -----

_MAC_SETADDRESS/MAIN           ----- -----  0026H 0027H  ----- -----
  +--> ?PR?_MAC_WRITE?MAIN

?CO?MAIN                       ----- -----  ----- -----  ----- -----

_SENDSTRING/MAIN               ----- -----  ----- -----  ----- -----

RCVE_FRAME/MAIN                20H.0 20H.1  0026H 0029H  ----- -----

_ETH_RCVE/MAIN                 ----- -----  0026H 0027H  ----- -----
LX51 LINKER/LOCATER V4.09                                                             09/01/2010  15:06:34  PAGE 8


  +--> ?PR?_ARP_RCVE?ARP
  +--> ?PR?_IP_RCVE?IP

_ARP_RCVE/ARP                  ----- -----  0028H 0029H  0076H 007AH
  +--> ?PR?ARP
  +--> ?CO?MAIN
  +--> ?PR?_IP_SEND?IP
  +--> ?PR?_ARP_SEND?ARP

_IP_SEND/IP                    ----- -----  0047H 0051H  ----- -----
  +--> ?PR?IP
  +--> ?CO?MAIN
  +--> ?PR?_CKSUM?CKSUM
  +--> ?PR?_ARP_RESOLVE?ARP
  +--> ?PR?_ETH_SEND?MAIN

IP                             ----- -----  ----- -----  ----- -----

_CKSUM/CKSUM                   ----- -----  0052H 0059H  ----- -----
  +--> ?PR?CKSUM

CKSUM                          ----- -----  ----- -----  ----- -----

_ARP_RESOLVE/ARP               ----- -----  0052H 0056H  ----- -----
  +--> ?CO?MAIN
  +--> ?PR?ARP
  +--> ?PR?_ARP_SEND?ARP

_ARP_SEND/ARP                  ----- -----  0057H 0062H  ----- -----
  +--> ?PR?ARP
  +--> ?CO?MAIN
  +--> ?PR?_ETH_SEND?MAIN

_ETH_SEND/MAIN                 ----- -----  0063H 006DH  ----- -----
  +--> ?PR?MAIN
  +--> ?PR?_CP220X_SEND?MAIN

_CP220X_SEND/MAIN              ----- -----  006EH 0073H  ----- -----
  +--> ?PR?MAIN

_IP_RCVE/IP                    ----- -----  0028H 002BH  0076H 0079H
  +--> ?PR?IP
  +--> ?CO?MAIN
  +--> ?PR?_CKSUM?CKSUM
  +--> ?PR?_ICMP_RCVE?ICMP
  +--> ?PR?_UDP_RCVE?UDP
  +--> ?PR?_TCP_RCVE?TCP

_ICMP_RCVE/ICMP                ----- -----  002CH 0032H  007AH 007CH
  +--> ?PR?_CKSUM?CKSUM
  +--> ?PR?_PING_SEND?ICMP

_PING_SEND/ICMP                ----- -----  0033H 003EH  ----- -----
  +--> ?PR?ICMP
  +--> ?PR?_CKSUM?CKSUM
  +--> ?PR?_IP_SEND?IP

ICMP                           ----- -----  ----- -----  ----- -----

_UDP_RCVE/UDP                  ----- -----  002CH 0031H  007AH 007FH
  +--> ?PR?UDP
  +--> ?PR?_CKSUM?CKSUM
  +--> ?PR?_UDP_ECHO_SERVICE?UDP
  +--> ?PR?_DEST_UNREACH_SEND?ICMP

LX51 LINKER/LOCATER V4.09                                                             09/01/2010  15:06:34  PAGE 9


UDP                            ----- -----  ----- -----  ----- -----

_UDP_ECHO_SERVICE/UDP          ----- -----  ----- -----  ----- -----
  +--> ?PR?_UDP_SEND?UDP

_UDP_SEND/UDP                  ----- -----  0032H 003BH  0080H 0085H
  +--> ?PR?UDP
  +--> ?CO?MAIN
  +--> ?PR?_CKSUM?CKSUM
  +--> ?PR?_IP_SEND?IP

_DEST_UNREACH_SEND/ICMP        ----- -----  0032H 003BH  ----- -----
  +--> ?PR?_CKSUM?CKSUM
  +--> ?PR?_IP_SEND?IP

_TCP_RCVE/TCP                  ----- -----  002CH 0033H  007AH 0086H
  +--> ?PR?_CKSUM?CKSUM
  +--> ?PR?TCP
  +--> ?PR?_TCP_SEND?TCP
  +--> ?PR?_HTTP_SERVER?HTTP

TCP                            ----- -----  ----- -----  ----- -----

_TCP_SEND/TCP                  ----- -----  0034H 003EH  0087H 0090H
  +--> ?PR?TCP
  +--> ?CO?TCP
  +--> ?CO?MAIN
  +--> ?PR?_CKSUM?CKSUM
  +--> ?PR?_IP_SEND?IP

?CO?TCP                        ----- -----  ----- -----  ----- -----

_HTTP_SERVER/HTTP              ----- -----  0034H 003DH  0087H 0095H
  +--> ?PR?HTTP
  +--> ?CO?HTTP
  +--> ?PR?_STRSTR?HTTP
  +--> ?PR?LIGHTONOFF?MAIN
  +--> ?CO?WEBDOC1
  +--> ?PR?_STRLEN?STRLEN
  +--> ?PR?_REPLACE_TAG?HTTP
  +--> ?PR?_HTTP_SEND?HTTP
  +--> ?PR?_ITOA?HTTP

HTTP                           ----- -----  ----- -----  ----- -----
  +--> ?CO?HTTP

?CO?HTTP                       ----- -----  ----- -----  ----- -----

_STRSTR/HTTP                   ----- -----  0046H 0051H  ----- -----
  +--> ?PR?HTTP

?CO?WEBDOC1                    ----- -----  ----- -----  ----- -----

_STRLEN/STRLEN                 ----- -----  ----- -----  ----- -----

_REPLACE_TAG/HTTP              ----- -----  003EH 0045H  0096H 0097H
  +--> ?PR?_STRSTR?HTTP

_HTTP_SEND/HTTP                ----- -----  003EH 0046H  0096H 009BH
  +--> ?PR?HTTP
  +--> ?CO?MAIN
  +--> ?PR?_CKSUM?CKSUM
  +--> ?PR?_IP_SEND?IP

_ITOA/HTTP                     ----- -----  003EH 004BH  ----- -----
LX51 LINKER/LOCATER V4.09                                                             09/01/2010  15:06:34  PAGE 10



TCP_RETRANSMIT/TCP             ----- -----  ----- -----  0076H 0076H
  +--> ?PR?TCP
  +--> ?PR?_TCP_SEND?TCP
  +--> ?PR?_HTTP_SERVER?HTTP

TCP_INACTIVITY/TCP             ----- -----  ----- -----  0076H 0076H
  +--> ?PR?TCP
  +--> ?PR?_TCP_SEND?TCP

ARP_RETRANSMIT/ARP             ----- -----  ----- -----  ----- -----
  +--> ?PR?ARP
  +--> ?PR?_ARP_SEND?ARP

AGE_ARP_CACHE/ARP              ----- -----  0026H 0026H  ----- -----
  +--> ?PR?ARP

READ_ANALOG_INPUTS/ANALOG      ----- -----  ----- -----  ----- -----
  +--> ?PR?ANALOG
  +--> ?CO?ANALOG
  +--> ?PR?_SENDSTRING?MAIN
  +--> ?PR?_INT2STR?MAIN

ANALOG                         ----- -----  ----- -----  ----- -----

?CO?ANALOG                     ----- -----  ----- -----  ----- -----

_INT2STR/MAIN                  ----- -----  0026H 002CH  ----- -----
  +--> ?PR?MAIN

?C_INITSEG                     ----- -----  ----- -----  ----- -----



PUBLIC SYMBOLS OF MODULE:  Web52 (ANALOG)


      VALUE       CLASS    TYPE      PUBLIC SYMBOL NAME
      =================================================
      00000057H   DATA     BYTE      ?_arp_send?BYTE
      00000032H   DATA     BYTE      ?_dest_unreach_send?BYTE
      00000063H   DATA     BYTE      ?_eth_send?BYTE
      00000034H   DATA     BYTE      ?_http_server?BYTE
      00000047H   DATA     BYTE      ?_ip_send?BYTE
      0000003EH   DATA     BYTE      ?_itoa?BYTE
      00000033H   DATA     BYTE      ?_ping_send?BYTE
      0000003EH   DATA     BYTE      ?_replace_tag?BYTE
      00000046H   DATA     BYTE      ?_strstr?BYTE
      01000212H   CODE     ---       ?C?CASTF
      010003A2H   CODE     ---       ?C?CLDOPTR
      01000389H   CODE     ---       ?C?CLDPTR
      00000000H   NUMBER   ---       ?C?CODESEG
      01000363H   CODE     ---       ?C?COPY
      010003E1H   CODE     ---       ?C?CSTOPTR
      010003CFH   CODE     ---       ?C?CSTPTR
      010001DEH   CODE     ---       ?C?FCASTC
      010001D9H   CODE     ---       ?C?FCASTI
      010001D4H   CODE     ---       ?C?FCASTL
      01000137H   CODE     ---       ?C?FPDIV
      01000249H   CODE     ---       ?C?FPGETOPN2
      0100002EH   CODE     ---       ?C?FPMUL
      0100027EH   CODE     ---       ?C?FPNANRESULT
      01000288H   CODE     ---       ?C?FPOVERFLOW
      01000260H   CODE     ---       ?C?FPRESULT
      01000274H   CODE     ---       ?C?FPRESULT2
LX51 LINKER/LOCATER V4.09                                                             09/01/2010  15:06:34  PAGE 11


      01000285H   CODE     ---       ?C?FPUNDERFLOW
      0100059DH   CODE     ---       ?C?ICASE
      01000403H   CODE     ---       ?C?IMUL
      0100050EH   CODE     ---       ?C?LLDCODE
      0100052BH   CODE     ---       ?C?LLDCODE0
      01000502H   CODE     ---       ?C?LLDIDATA
      0100051EH   CODE     ---       ?C?LLDIDATA0
      010004D2H   CODE     ---       ?C?LLDOPTR
      010007A4H   CODE     ---       ?C?LLDPDATA
      01000798H   CODE     ---       ?C?LLDXDATA
      010004A0H   CODE     ---       ?C?LNEG
      0100053BH   CODE     ---       ?C?LSTIDATA
      01000553H   CODE     ---       ?C?LSTKIDATA
      0100056CH   CODE     ---       ?C?LSTKXDATA
      01000547H   CODE     ---       ?C?LSTXDATA
      01000770H   CODE     ---       ?C?MEMMOVE
      010005CAH   CODE     ---       ?C?MEMSET
      0100046AH   CODE     ---       ?C?SIDIV
      01000415H   CODE     ---       ?C?UIDIV
      010004AEH   CODE     ---       ?C?ULCMP
      010004BFH   CODE     ---       ?C?ULSHR
      00000000H   NUMBER   ---       ?C?XDATASEG
      0100254CH   CODE     ---       ?C_START
      01000000H   CODE     ---       ?C_STARTUP
      00000020H.0 BIT      BIT       ?LightONOFF?BIT
      01001354H   CODE     ---       _arp_rcve
      0100233FH   CODE     ---       _arp_resolve
      01001B4AH   CODE     ---       _arp_send
      01002094H   CODE     ---       _cksum
      01002591H   CODE     ---       _CP220x_Send
      01002D09H   CODE     ---       _Delay1ms
      010023DEH   CODE     ---       _dest_unreach_send
      01002A1BH   CODE     ---       _eth_rcve
      0100294CH   CODE     ---       _eth_send
      010014D4H   CODE     ---       _http_send
      01000C1EH   CODE     ---       _http_server
      010027DDH   CODE     ---       _icmp_rcve
      01002477H   CODE     ---       _int2str
      01001620H   CODE     ---       _ip_rcve
      01001950H   CODE     ---       _ip_send
      01001FE6H   CODE     ---       _itoa
      01002A95H   CODE     ---       _MAC_SetAddress
      01002C09H   CODE     ---       _MAC_Write
      010021EFH   CODE     ---       _ping_send
      0100270BH   CODE     ---       _replace_tag
      01002C6FH   CODE     ---       _SendString
      0100000EH   CODE     ---       _STRLEN
      01002694H   CODE     ---       _strstr
      010007B0H   CODE     ---       _tcp_rcve
      010011B6H   CODE     ---       _tcp_send
      01002D10H   CODE     ---       _udp_echo_service
      01001CF5H   CODE     ---       _udp_rcve
      01001736H   CODE     ---       _udp_send
      00000008H   DATA     ---       a
*SFR* 00000090H   DATA     BIT       AB4_RST
*SFR* 000000D0H.6 DATA     BIT       AC
*SFR* 000000E0H   DATA     BYTE      ACC
*SFR* 000000E0H   DATA     BIT       ACC0
*SFR* 000000E0H.1 DATA     BIT       ACC1
*SFR* 000000E0H.2 DATA     BIT       ACC2
*SFR* 000000E0H.3 DATA     BIT       ACC3
*SFR* 000000E0H.4 DATA     BIT       ACC4
*SFR* 000000E0H.5 DATA     BIT       ACC5
*SFR* 000000E0H.6 DATA     BIT       ACC6
*SFR* 000000E0H.7 DATA     BIT       ACC7
LX51 LINKER/LOCATER V4.09                                                             09/01/2010  15:06:34  PAGE 12


*SFR* 000000C0H.1 DATA     BIT       ACK
*SFR* 000000C0H.3 DATA     BIT       ACKRQ
*SFR* 000000E8H.4 DATA     BIT       AD0BUSY
*SFR* 000000E8H   DATA     BIT       AD0CM0
*SFR* 000000E8H.1 DATA     BIT       AD0CM1
*SFR* 000000E8H.2 DATA     BIT       AD0CM2
*SFR* 000000E8H.7 DATA     BIT       AD0EN
*SFR* 000000E8H.5 DATA     BIT       AD0INT
*SFR* 000000E8H.6 DATA     BIT       AD0TM
*SFR* 000000E8H.3 DATA     BIT       AD0WINT
*SFR* 000000BEH   DATA     WORD      ADC0
*SFR* 000000BCH   DATA     BYTE      ADC0CF
*SFR* 000000E8H   DATA     BYTE      ADC0CN
*SFR* 000000C4H   DATA     BYTE      ADC0GTH
*SFR* 000000C3H   DATA     BYTE      ADC0GTL
*SFR* 000000BEH   DATA     BYTE      ADC0H
*SFR* 000000BDH   DATA     BYTE      ADC0L
*SFR* 000000C6H   DATA     BYTE      ADC0LTH
*SFR* 000000C5H   DATA     BYTE      ADC0LTL
      01002993H   CODE     ---       age_arp_cache
      000000AEH   IDATA    WORD      air_temperature
      000000A3H   IDATA    WORD      ams
*SFR* 000000BAH   DATA     BYTE      AMX0N
*SFR* 000000BBH   DATA     BYTE      AMX0P
*SFR* 000000C0H.2 DATA     BIT       ARBLOST
      020000E7H   XDATA    ---       arp_cache
      01002A5CH   CODE     ---       arp_retransmit
*SFR* 000000F0H   DATA     BYTE      B
*SFR* 000000F0H   DATA     BIT       B0
*SFR* 000000F0H.1 DATA     BIT       B1
*SFR* 000000F0H.2 DATA     BIT       B2
*SFR* 000000F0H.3 DATA     BIT       B3
*SFR* 000000F0H.4 DATA     BIT       B4
*SFR* 000000F0H.5 DATA     BIT       B5
*SFR* 000000F0H.6 DATA     BIT       B6
*SFR* 000000F0H.7 DATA     BIT       B7
      01002C8FH   CODE     ---       broadcast_hwaddr
*SFR* 000000D8H   DATA     BIT       CCF0
*SFR* 000000D8H.1 DATA     BIT       CCF1
*SFR* 000000D8H.2 DATA     BIT       CCF2
*SFR* 000000D8H.3 DATA     BIT       CCF3
*SFR* 000000D8H.4 DATA     BIT       CCF4
*SFR* 000000D8H.7 DATA     BIT       CF
*SFR* 0000008EH   DATA     BYTE      CKCON
*SFR* 000000B9H   DATA     BYTE      CLKMUL
*SFR* 000000A9H   DATA     BYTE      CLKSEL
      00000020H.2 BIT      BIT       CONTROL_LED
      02000000H   XDATA    ---       conxn
      00000019H   DATA     BYTE      Count10ms
      00000013H   DATA     BYTE      Count1ms
      00000015H   DATA     WORD      Count1msInc
      00000014H   DATA     BYTE      Count1s
      0100000AH   CODE     ---       CP220x_RST_High
      01000009H   CODE     ---       CP220x_RST_Low
      02003F21H   XDATA    BYTE      CPADDRH
      02003F22H   XDATA    BYTE      CPADDRL
      02003F1DH   XDATA    BYTE      CPINFOH
      02003F1EH   XDATA    BYTE      CPINFOL
      02003F1FH   XDATA    BYTE      CPLENH
      02003F20H   XDATA    BYTE      CPLENL
*SFR* 0000009BH   DATA     BYTE      CPT0CN
*SFR* 0000009DH   DATA     BYTE      CPT0MD
*SFR* 0000009FH   DATA     BYTE      CPT0MX
*SFR* 0000009AH   DATA     BYTE      CPT1CN
*SFR* 0000009CH   DATA     BYTE      CPT1MD
LX51 LINKER/LOCATER V4.09                                                             09/01/2010  15:06:34  PAGE 13


*SFR* 0000009EH   DATA     BYTE      CPT1MX
      02003F1AH   XDATA    BYTE      CPTLB
      000000A5H   IDATA    WORD      cpu_temperature
      0000009EH   IDATA    WORD      cpu_voltage
*SFR* 000000D8H.6 DATA     BIT       CR
*SFR* 000000D0H.7 DATA     BIT       CY
      000000ADH   IDATA    BYTE      debug
*SFR* 00000083H   DATA     BYTE      DPH
*SFR* 00000082H   DATA     BYTE      DPL
*SFR* 000000A8H.7 DATA     BIT       EA
*SFR* 000000E6H   DATA     BYTE      EIE1
*SFR* 000000E7H   DATA     BYTE      EIE2
*SFR* 000000F6H   DATA     BYTE      EIP1
*SFR* 000000F7H   DATA     BYTE      EIP2
*SFR* 00000085H   DATA     BYTE      EMI0CF
*SFR* 000000AAH   DATA     BYTE      EMI0CN
*SFR* 00000084H   DATA     BYTE      EMI0TC
*SFR* 000000A8H.4 DATA     BIT       ES0
*SFR* 000000A8H.6 DATA     BIT       ESPI0
*SFR* 000000A8H.1 DATA     BIT       ET0
*SFR* 000000A8H.3 DATA     BIT       ET1
*SFR* 000000A8H.5 DATA     BIT       ET2
      00000017H   DATA     WORD      event_word
*SFR* 000000A8H   DATA     BIT       EX0
*SFR* 000000A8H.2 DATA     BIT       EX1
*SFR* 000000D0H.5 DATA     BIT       F0
*SFR* 000000D0H.1 DATA     BIT       F1
      02003F69H   XDATA    BYTE      FLASHADDRH
      02003F68H   XDATA    BYTE      FLASHADDRL
      02003F05H   XDATA    BYTE      FLASHAUTORD
      02003F06H   XDATA    BYTE      FLASHDATA
      02003F6AH   XDATA    BYTE      FLASHERASE
      02003F67H   XDATA    BYTE      FLASHKEY
      02003F7BH   XDATA    BYTE      FLASHSTA
*SFR* 000000B7H   DATA     BYTE      FLKEY
*SFR* 000000B6H   DATA     BYTE      FLSCL
      01002C9DH   CODE     DWORD     gateway_ipaddr
      01002D24H   CONST    ---       html_header
*SFR* 000000A8H   DATA     BYTE      IE
*SFR* 00000088H.1 DATA     BIT       IE0
*SFR* 00000088H.3 DATA     BIT       IE1
      020003E8H   XDATA    ---       inbuf1
      01002CCDH   CODE     ---       init_adc
      01002CA1H   CODE     ---       init_arp
      01002D1BH   CODE     ---       init_http
      01002C3AH   CODE     ---       init_main
      01002C1EH   CODE     ---       init_tcp
      01002CF3H   CODE     ---       init_timer2
      000000A9H   IDATA    DWORD     initial_sequence_nr
      02003F63H   XDATA    BYTE      INT0
      02003F64H   XDATA    BYTE      INT0EN
      02003F76H   XDATA    BYTE      INT0RD
      02003F7FH   XDATA    BYTE      INT1
      02003F7DH   XDATA    BYTE      INT1EN
      02003F7EH   XDATA    BYTE      INT1RD
      02003F70H   XDATA    BYTE      IOPWR
*SFR* 000000B8H   DATA     BYTE      IP
*SFR* 00000088H   DATA     BIT       IT0
*SFR* 000000E4H   DATA     BYTE      IT01CF
*SFR* 00000088H.2 DATA     BIT       IT1
      01003258H   CONST    ---       jpeg_header
      000000A8H   IDATA    BYTE      just_closed
      01000026H   CODE     ---       LightONOFF
      01001E7EH   CODE     ---       MAC_Init
      02003F0AH   XDATA    BYTE      MACADDR
LX51 LINKER/LOCATER V4.09                                                             09/01/2010  15:06:34  PAGE 14


      02003F0BH   XDATA    BYTE      MACDATAH
      02003F0CH   XDATA    BYTE      MACDATAL
      02003F0DH   XDATA    BYTE      MACRW
      01001A4FH   CODE     ---       main
*SFR* 000000C0H.7 DATA     BIT       MASTER
*SFR* 00000098H.5 DATA     BIT       MCE0
*SFR* 000000F8H.5 DATA     BIT       MODF
      000000A2H   IDATA    BYTE      mux_select
      02000155H   XDATA    ---       my_hwaddr
      01002C95H   CODE     DWORD     my_ipaddr
      01002C99H   CODE     DWORD     my_subnet
      0200016FH   XDATA    ---       MYMAC
*SFR* 000000F8H.2 DATA     BIT       NSSMD0
*SFR* 000000F8H.3 DATA     BIT       NSSMD1
      0100838EH   CONST    ---       opt
*SFR* 000000B3H   DATA     BYTE      OSCICL
*SFR* 000000B2H   DATA     BYTE      OSCICN
*SFR* 00000086H   DATA     BYTE      OSCLCN
      02003F7CH   XDATA    BYTE      OSCPWR
*SFR* 000000B1H   DATA     BYTE      OSCXCN
      020009C4H   XDATA    ---       outbuf1
*SFR* 000000D0H.2 DATA     BIT       OV
*SFR* 00000080H   DATA     BYTE      P0
*SFR* 00000080H   DATA     BIT       P00
*SFR* 00000080H.1 DATA     BIT       P01
*SFR* 00000080H.2 DATA     BIT       P02
*SFR* 00000080H.3 DATA     BIT       P03
*SFR* 00000080H.4 DATA     BIT       P04
*SFR* 00000080H.5 DATA     BIT       P05
*SFR* 00000080H.6 DATA     BIT       P06
*SFR* 00000080H.7 DATA     BIT       P07
*SFR* 000000F1H   DATA     BYTE      P0MDIN
*SFR* 000000A4H   DATA     BYTE      P0MDOUT
*SFR* 000000D4H   DATA     BYTE      P0SKIP
*SFR* 00000090H   DATA     BYTE      P1
*SFR* 00000090H   DATA     BIT       P10
*SFR* 00000090H.1 DATA     BIT       P11
*SFR* 00000090H.2 DATA     BIT       P12
*SFR* 00000090H.3 DATA     BIT       P13
*SFR* 00000090H.4 DATA     BIT       P14
*SFR* 00000090H.5 DATA     BIT       P15
*SFR* 00000090H.6 DATA     BIT       P16
*SFR* 00000090H.7 DATA     BIT       P17
*SFR* 000000F2H   DATA     BYTE      P1MDIN
*SFR* 000000A5H   DATA     BYTE      P1MDOUT
*SFR* 000000D5H   DATA     BYTE      P1SKIP
*SFR* 000000A0H   DATA     BYTE      P2
*SFR* 000000A0H   DATA     BIT       P20
*SFR* 000000A0H.1 DATA     BIT       P21
*SFR* 000000A0H.2 DATA     BIT       P22
*SFR* 000000A0H.3 DATA     BIT       P23
*SFR* 000000A0H.4 DATA     BIT       P24
*SFR* 000000A0H.5 DATA     BIT       P25
*SFR* 000000A0H.6 DATA     BIT       P26
*SFR* 000000A0H.7 DATA     BIT       P27
*SFR* 000000F3H   DATA     BYTE      P2MDIN
*SFR* 000000A6H   DATA     BYTE      P2MDOUT
*SFR* 000000D6H   DATA     BYTE      P2SKIP
*SFR* 000000B0H   DATA     BYTE      P3
*SFR* 000000B0H   DATA     BIT       P30
*SFR* 000000B0H.1 DATA     BIT       P31
*SFR* 000000B0H.2 DATA     BIT       P32
*SFR* 000000B0H.3 DATA     BIT       P33
*SFR* 000000B0H.4 DATA     BIT       P34
*SFR* 000000B0H.5 DATA     BIT       P35
LX51 LINKER/LOCATER V4.09                                                             09/01/2010  15:06:34  PAGE 15


*SFR* 000000B0H.6 DATA     BIT       P36
*SFR* 000000B0H.7 DATA     BIT       P37
*SFR* 000000F4H   DATA     BYTE      P3MDIN
*SFR* 000000A7H   DATA     BYTE      P3MDOUT
*SFR* 000000DFH   DATA     BYTE      P3SKIP
*SFR* 000000C7H   DATA     BYTE      P4
*SFR* 000000F5H   DATA     BYTE      P4MDIN
*SFR* 000000AEH   DATA     BYTE      P4MDOUT
*SFR* 000000D0H   DATA     BIT       PARITY
*SFR* 000000D8H   DATA     BYTE      PCA0CN
*SFR* 000000FCH   DATA     BYTE      PCA0CPH0
*SFR* 000000EAH   DATA     BYTE      PCA0CPH1
*SFR* 000000ECH   DATA     BYTE      PCA0CPH2
*SFR* 000000EEH   DATA     BYTE      PCA0CPH3
*SFR* 000000FEH   DATA     BYTE      PCA0CPH4
*SFR* 000000FBH   DATA     BYTE      PCA0CPL0
*SFR* 000000E9H   DATA     BYTE      PCA0CPL1
*SFR* 000000EBH   DATA     BYTE      PCA0CPL2
*SFR* 000000EDH   DATA     BYTE      PCA0CPL3
*SFR* 000000FDH   DATA     BYTE      PCA0CPL4
*SFR* 000000DAH   DATA     BYTE      PCA0CPM0
*SFR* 000000DBH   DATA     BYTE      PCA0CPM1
*SFR* 000000DCH   DATA     BYTE      PCA0CPM2
*SFR* 000000DDH   DATA     BYTE      PCA0CPM3
*SFR* 000000DEH   DATA     BYTE      PCA0CPM4
*SFR* 000000FAH   DATA     BYTE      PCA0H
*SFR* 000000F9H   DATA     BYTE      PCA0L
*SFR* 000000D9H   DATA     BYTE      PCA0MD
*SFR* 00000087H   DATA     BYTE      PCON
*SFR* 000000AFH   DATA     BYTE      PFE0CN
      010032CDH   CONST    ---       photo1_jpeg
      01002841H   CODE     ---       PHY_Init
      02003F79H   XDATA    BYTE      PHYCF
      02003F78H   XDATA    BYTE      PHYCN
      02003F80H   XDATA    BYTE      PHYSTA
      01002B05H   CODE     ---       PORT_Init
*SFR* 000000B8H.4 DATA     BIT       PS0
*SFR* 0000008FH   DATA     BYTE      PSCTL
*SFR* 000000B8H.6 DATA     BIT       PSPI0
*SFR* 000000D0H   DATA     BYTE      PSW
*SFR* 000000B8H.1 DATA     BIT       PT0
*SFR* 000000B8H.3 DATA     BIT       PT1
*SFR* 000000B8H.5 DATA     BIT       PT2
*SFR* 000000B8H   DATA     BIT       PX0
*SFR* 000000B8H.2 DATA     BIT       PX1
      02003F08H   XDATA    BYTE      RAMADDRH
      02003F09H   XDATA    BYTE      RAMADDRL
      02003F02H   XDATA    BYTE      RAMRXDATA
      02003F04H   XDATA    BYTE      RAMTXDATA
*SFR* 00000098H.2 DATA     BIT       RB80
      000000B0H   IDATA    BYTE      rcve_buf_allocated
      01002297H   CODE     ---       rcve_frame
      01001F34H   CODE     ---       read_analog_inputs
*SFR* 000000D1H   DATA     BYTE      REF0CN
*SFR* 000000C9H   DATA     BYTE      REG0CN
*SFR* 00000098H.4 DATA     BIT       REN0
*SFR* 00000098H   DATA     BIT       RI0
*SFR* 000000D0H.3 DATA     BIT       RS0
*SFR* 000000D0H.4 DATA     BIT       RS1
      02003F72H   XDATA    BYTE      RSTEN
*SFR* 000000EFH   DATA     BYTE      RSTSRC
      02003F73H   XDATA    BYTE      RSTSTA
      02003F01H   XDATA    BYTE      RXAUTORD
      02003F11H   XDATA    BYTE      RXCN
      02003F17H   XDATA    BYTE      RXFIFOHEADH
LX51 LINKER/LOCATER V4.09                                                             09/01/2010  15:06:34  PAGE 16


      02003F18H   XDATA    BYTE      RXFIFOHEADL
      02003F5BH   XDATA    BYTE      RXFIFOSTA
      02003F15H   XDATA    BYTE      RXFIFOTAILH
      02003F16H   XDATA    BYTE      RXFIFOTAILL
      02003F10H   XDATA    BYTE      RXFILT
      02003F0EH   XDATA    BYTE      RXHASHH
      02003F0FH   XDATA    BYTE      RXHASHL
*SFR* 000000F8H.4 DATA     BIT       RXOVRN
      02003F12H   XDATA    BYTE      RXSTA
*SFR* 00000098H.7 DATA     BIT       S0MODE
*SFR* 000000ACH   DATA     BYTE      SBCON1
*SFR* 000000B5H   DATA     BYTE      SBRLH1
*SFR* 000000B4H   DATA     BYTE      SBRLL1
*SFR* 00000099H   DATA     BYTE      SBUF0
*SFR* 000000D3H   DATA     BYTE      SBUF1
*SFR* 00000098H   DATA     BYTE      SCON0
*SFR* 000000D2H   DATA     BYTE      SCON1
      020000E5H   XDATA    WORD      sender_tcpport
      02000183H   XDATA    WORD      sender_udpport
      01002BE0H   CODE     ---       serial
*SFR* 000000C0H   DATA     BIT       SI
*SFR* 000000C1H   DATA     BYTE      SMB0CF
*SFR* 000000C0H   DATA     BYTE      SMB0CN
*SFR* 000000C2H   DATA     BYTE      SMB0DAT
*SFR* 000000E5H   DATA     BYTE      SMOD1
*SFR* 00000081H   DATA     BYTE      SP
*SFR* 000000A1H   DATA     BYTE      SPI0CFG
*SFR* 000000A2H   DATA     BYTE      SPI0CKR
*SFR* 000000F8H   DATA     BYTE      SPI0CN
*SFR* 000000A3H   DATA     BYTE      SPI0DAT
*SFR* 000000F8H   DATA     BIT       SPIEN
*SFR* 000000F8H.7 DATA     BIT       SPIF
*SFR* 000000C0H.5 DATA     BIT       STA
*SFR* 000000C0H.4 DATA     BIT       STO
      02003F75H   XDATA    BYTE      SWRST
      01002ACEH   CODE     ---       SYSCLK_Init
*SFR* 000000C8H.4 DATA     BIT       T2CE
*SFR* 000000C8H.1 DATA     BIT       T2CSS
*SFR* 000000C8H.3 DATA     BIT       T2SPLIT
*SFR* 000000C8H   DATA     BIT       T2XCLK
*SFR* 00000098H.3 DATA     BIT       TB80
*SFR* 00000088H   DATA     BYTE      TCON
      01002774H   CODE     ---       tcp_inactivity
      01001C22H   CODE     ---       tcp_retransmit
      000000A0H   IDATA    WORD      temp
      0000009CH   IDATA    WORD      temp_l
      0200015BH   XDATA    ---       text
*SFR* 00000088H.5 DATA     BIT       TF0
*SFR* 00000088H.7 DATA     BIT       TF1
*SFR* 000000C8H.7 DATA     BIT       TF2H
*SFR* 000000C8H.6 DATA     BIT       TF2L
*SFR* 000000C8H.5 DATA     BIT       TF2LEN
*SFR* 0000008CH   DATA     BYTE      TH0
*SFR* 0000008DH   DATA     BYTE      TH1
*SFR* 00000098H.1 DATA     BIT       TI0
      00000012H   DATA     BYTE      TimeMinute
      01002C55H   CODE     ---       Timer0_Init
      01002903H   CODE     ---       Timer0_ISR
      01002142H   CODE     ---       timer2_interrupt
      0000001AH   DATA     BYTE      TimeSecond
*SFR* 0000008AH   DATA     BYTE      TL0
*SFR* 0000008BH   DATA     BYTE      TL1
      02003F27H   XDATA    BYTE      TLB0ADDRH
      02003F28H   XDATA    BYTE      TLB0ADDRL
      02003F23H   XDATA    BYTE      TLB0INFOH
LX51 LINKER/LOCATER V4.09                                                             09/01/2010  15:06:34  PAGE 17


      02003F24H   XDATA    BYTE      TLB0INFOL
      02003F25H   XDATA    BYTE      TLB0LENH
      02003F26H   XDATA    BYTE      TLB0LENL
      02003F2DH   XDATA    BYTE      TLB1ADDRH
      02003F2EH   XDATA    BYTE      TLB1ADDRL
      02003F29H   XDATA    BYTE      TLB1INFOH
      02003F2AH   XDATA    BYTE      TLB1INFOL
      02003F2BH   XDATA    BYTE      TLB1LENH
      02003F2CH   XDATA    BYTE      TLB1LENL
      02003F33H   XDATA    BYTE      TLB2ADDRH
      02003F34H   XDATA    BYTE      TLB2ADDRL
      02003F2FH   XDATA    BYTE      TLB2INFOH
      02003F30H   XDATA    BYTE      TLB2INFOL
      02003F31H   XDATA    BYTE      TLB2LENH
      02003F32H   XDATA    BYTE      TLB2LENL
      02003F39H   XDATA    BYTE      TLB3ADDRH
      02003F3AH   XDATA    BYTE      TLB3ADDRL
      02003F35H   XDATA    BYTE      TLB3INFOH
      02003F36H   XDATA    BYTE      TLB3INFOL
      02003F37H   XDATA    BYTE      TLB3LENH
      02003F38H   XDATA    BYTE      TLB3LENL
      02003F3FH   XDATA    BYTE      TLB4ADDRH
      02003F40H   XDATA    BYTE      TLB4ADDRL
      02003F3BH   XDATA    BYTE      TLB4INFOH
      02003F3CH   XDATA    BYTE      TLB4INFOL
      02003F3DH   XDATA    BYTE      TLB4LENH
      02003F3EH   XDATA    BYTE      TLB4LENL
      02003F45H   XDATA    BYTE      TLB5ADDRH
      02003F46H   XDATA    BYTE      TLB5ADDRL
      02003F41H   XDATA    BYTE      TLB5INFOH
      02003F42H   XDATA    BYTE      TLB5INFOL
      02003F43H   XDATA    BYTE      TLB5LENH
      02003F44H   XDATA    BYTE      TLB5LENL
      02003F4BH   XDATA    BYTE      TLB6ADDRH
      02003F4CH   XDATA    BYTE      TLB6ADDRL
      02003F47H   XDATA    BYTE      TLB6INFOH
      02003F48H   XDATA    BYTE      TLB6INFOL
      02003F49H   XDATA    BYTE      TLB6LENH
      02003F4AH   XDATA    BYTE      TLB6LENL
      02003F51H   XDATA    BYTE      TLB7ADDRH
      02003F52H   XDATA    BYTE      TLB7ADDRL
      02003F4DH   XDATA    BYTE      TLB7INFOH
      02003F4EH   XDATA    BYTE      TLB7INFOL
      02003F4FH   XDATA    BYTE      TLB7LENH
      02003F50H   XDATA    BYTE      TLB7LENL
      02003F1CH   XDATA    BYTE      TLBVALID
*SFR* 00000089H   DATA     BYTE      TMOD
*SFR* 000000C8H   DATA     BYTE      TMR2CN
*SFR* 000000CDH   DATA     BYTE      TMR2H
*SFR* 000000CCH   DATA     BYTE      TMR2L
*SFR* 000000CBH   DATA     BYTE      TMR2RLH
*SFR* 000000CAH   DATA     BYTE      TMR2RLL
*SFR* 00000091H   DATA     BYTE      TMR3CN
*SFR* 00000095H   DATA     BYTE      TMR3H
*SFR* 00000094H   DATA     BYTE      TMR3L
*SFR* 00000093H   DATA     BYTE      TMR3RLH
*SFR* 00000092H   DATA     BYTE      TMR3RLL
*SFR* 00000088H.4 DATA     BIT       TR0
*SFR* 00000088H.6 DATA     BIT       TR1
*SFR* 000000C8H.2 DATA     BIT       TR2
      02003F03H   XDATA    BYTE      TXAUTOWR
*SFR* 000000F8H.1 DATA     BIT       TXBMT
      02003F54H   XDATA    BYTE      TXBUSY
      02003F53H   XDATA    BYTE      TXCN
      02003F57H   XDATA    BYTE      TXENDH
LX51 LINKER/LOCATER V4.09                                                             09/01/2010  15:06:34  PAGE 18


      02003F58H   XDATA    BYTE      TXENDL
*SFR* 000000C0H.6 DATA     BIT       TXMODE
      02003F55H   XDATA    BYTE      TXPAUSEH
      02003F56H   XDATA    BYTE      TXPAUSEL
      02003F7AH   XDATA    BYTE      TXPWR
      02003F62H   XDATA    BYTE      TXSTA0
      02003F61H   XDATA    BYTE      TXSTA1
      02003F60H   XDATA    BYTE      TXSTA2
      02003F5FH   XDATA    BYTE      TXSTA3
      02003F5EH   XDATA    BYTE      TXSTA4
      02003F5DH   XDATA    BYTE      TXSTA5
      02003F5CH   XDATA    BYTE      TXSTA6
      02003F59H   XDATA    BYTE      TXSTARTH
      02003F5AH   XDATA    BYTE      TXSTARTL
      01002CB7H   CODE     ---       UART0_Init
*SFR* 00000096H   DATA     BYTE      USB0ADR
*SFR* 00000097H   DATA     BYTE      USB0DAT
*SFR* 000000D7H   DATA     BYTE      USB0XCN
*SFR* 000000FFH   DATA     BYTE      VDM0CN
      02003F13H   XDATA    BYTE      VDMCN
      02000175H   XDATA    ---       wait
      0000001FH   DATA     BYTE      waiting_for_arp
*SFR* 000000F8H.6 DATA     BIT       WCOL
      01002D98H   CONST    ---       web_page
*SFR* 000000E1H   DATA     BYTE      XBR0
*SFR* 000000E2H   DATA     BYTE      XBR1
*SFR* 000000E3H   DATA     BYTE      XBR2



SYMBOL TABLE OF MODULE:  Web52 (ANALOG)

      VALUE       REP       CLASS    TYPE      SYMBOL NAME
      ====================================================
      ---         MODULE    ---      ---       ANALOG
      00000008H   PUBLIC    DATA     ---       a
      000000A5H   PUBLIC    IDATA    WORD      cpu_temperature
      000000A3H   PUBLIC    IDATA    WORD      ams
      000000A2H   PUBLIC    IDATA    BYTE      mux_select
      000000A0H   PUBLIC    IDATA    WORD      temp
      0000009EH   PUBLIC    IDATA    WORD      cpu_voltage
      0000009CH   PUBLIC    IDATA    WORD      temp_l
      01001F34H   PUBLIC    CODE     ---       read_analog_inputs
      01002CCDH   PUBLIC    CODE     ---       init_adc
      00000098H.3 SFRSYM    DATA     BIT       TB80
      000000D8H.2 SFRSYM    DATA     BIT       CCF2
      000000E0H.7 SFRSYM    DATA     BIT       ACC7
      000000A2H   SFRSYM    DATA     BYTE      SPI0CKR
      000000D8H.3 SFRSYM    DATA     BIT       CCF3
      00000080H   SFRSYM    DATA     BYTE      P0
      000000D8H.4 SFRSYM    DATA     BIT       CCF4
      000000F8H   SFRSYM    DATA     BIT       SPIEN
      00000090H   SFRSYM    DATA     BYTE      P1
      000000A0H   SFRSYM    DATA     BYTE      P2
      000000B0H   SFRSYM    DATA     BYTE      P3
      000000BCH   SFRSYM    DATA     BYTE      ADC0CF
      000000D0H.6 SFRSYM    DATA     BIT       AC
      000000C7H   SFRSYM    DATA     BYTE      P4
      000000E6H   SFRSYM    DATA     BYTE      EIE1
      00000098H.5 SFRSYM    DATA     BIT       MCE0
      000000A8H.7 SFRSYM    DATA     BIT       EA
      000000D7H   SFRSYM    DATA     BYTE      USB0XCN
      000000E7H   SFRSYM    DATA     BYTE      EIE2
      0000008FH   SFRSYM    DATA     BYTE      PSCTL
      000000D8H.7 SFRSYM    DATA     BIT       CF
LX51 LINKER/LOCATER V4.09                                                             09/01/2010  15:06:34  PAGE 19


      000000E4H   SFRSYM    DATA     BYTE      IT01CF
      000000E8H   SFRSYM    DATA     BYTE      ADC0CN
      000000A4H   SFRSYM    DATA     BYTE      P0MDOUT
      000000A5H   SFRSYM    DATA     BYTE      P1MDOUT
      000000CBH   SFRSYM    DATA     BYTE      TMR2RLH
      000000A6H   SFRSYM    DATA     BYTE      P2MDOUT
      000000A8H   SFRSYM    DATA     BYTE      IE
      000000C8H.4 SFRSYM    DATA     BIT       T2CE
      00000093H   SFRSYM    DATA     BYTE      TMR3RLH
      000000A7H   SFRSYM    DATA     BYTE      P3MDOUT
      000000AEH   SFRSYM    DATA     BYTE      P4MDOUT
      000000F6H   SFRSYM    DATA     BYTE      EIP1
      000000F8H.1 SFRSYM    DATA     BIT       TXBMT
      000000F7H   SFRSYM    DATA     BYTE      EIP2
      000000CAH   SFRSYM    DATA     BYTE      TMR2RLL
      000000FCH   SFRSYM    DATA     BYTE      PCA0CPH0
      00000092H   SFRSYM    DATA     BYTE      TMR3RLL
      000000EAH   SFRSYM    DATA     BYTE      PCA0CPH1
      000000ECH   SFRSYM    DATA     BYTE      PCA0CPH2
      000000C8H.7 SFRSYM    DATA     BIT       TF2H
      000000C8H.3 SFRSYM    DATA     BIT       T2SPLIT
      000000D8H.6 SFRSYM    DATA     BIT       CR
      000000EEH   SFRSYM    DATA     BYTE      PCA0CPH3
      00000098H.4 SFRSYM    DATA     BIT       REN0
      000000FBH   SFRSYM    DATA     BYTE      PCA0CPL0
      000000FEH   SFRSYM    DATA     BYTE      PCA0CPH4
      00000085H   SFRSYM    DATA     BYTE      EMI0CF
      000000D9H   SFRSYM    DATA     BYTE      PCA0MD
      000000DAH   SFRSYM    DATA     BYTE      PCA0CPM0
      000000E9H   SFRSYM    DATA     BYTE      PCA0CPL1
      000000D8H   SFRSYM    DATA     BYTE      PCA0CN
      000000DBH   SFRSYM    DATA     BYTE      PCA0CPM1
      000000EBH   SFRSYM    DATA     BYTE      PCA0CPL2
      000000C8H.6 SFRSYM    DATA     BIT       TF2L
      000000DCH   SFRSYM    DATA     BYTE      PCA0CPM2
      000000EDH   SFRSYM    DATA     BYTE      PCA0CPL3
      000000B8H   SFRSYM    DATA     BYTE      IP
      000000C0H.2 SFRSYM    DATA     BIT       ARBLOST
      000000DDH   SFRSYM    DATA     BYTE      PCA0CPM3
      000000FDH   SFRSYM    DATA     BYTE      PCA0CPL4
      000000DEH   SFRSYM    DATA     BYTE      PCA0CPM4
      000000C0H   SFRSYM    DATA     BIT       SI
      000000D0H.7 SFRSYM    DATA     BIT       CY
      000000E1H   SFRSYM    DATA     BYTE      XBR0
      000000C1H   SFRSYM    DATA     BYTE      SMB0CF
      000000E2H   SFRSYM    DATA     BYTE      XBR1
      000000AFH   SFRSYM    DATA     BYTE      PFE0CN
      000000AAH   SFRSYM    DATA     BYTE      EMI0CN
      000000E3H   SFRSYM    DATA     BYTE      XBR2
      000000D1H   SFRSYM    DATA     BYTE      REF0CN
      000000C9H   SFRSYM    DATA     BYTE      REG0CN
      000000E8H.5 SFRSYM    DATA     BIT       AD0INT
      00000081H   SFRSYM    DATA     BYTE      SP
      00000084H   SFRSYM    DATA     BYTE      EMI0TC
      000000D0H.2 SFRSYM    DATA     BIT       OV
      000000C0H   SFRSYM    DATA     BYTE      SMB0CN
      000000F8H.5 SFRSYM    DATA     BIT       MODF
      000000ACH   SFRSYM    DATA     BYTE      SBCON1
      00000098H.7 SFRSYM    DATA     BIT       S0MODE
      000000FFH   SFRSYM    DATA     BYTE      VDM0CN
      000000F1H   SFRSYM    DATA     BYTE      P0MDIN
      0000009DH   SFRSYM    DATA     BYTE      CPT0MD
      0000009BH   SFRSYM    DATA     BYTE      CPT0CN
      000000F2H   SFRSYM    DATA     BYTE      P1MDIN
      0000009CH   SFRSYM    DATA     BYTE      CPT1MD
LX51 LINKER/LOCATER V4.09                                                             09/01/2010  15:06:34  PAGE 20


      0000009AH   SFRSYM    DATA     BYTE      CPT1CN
      000000F3H   SFRSYM    DATA     BYTE      P2MDIN
      000000C8H.5 SFRSYM    DATA     BIT       TF2LEN
      000000F4H   SFRSYM    DATA     BYTE      P3MDIN
      000000B5H   SFRSYM    DATA     BYTE      SBRLH1
      000000F5H   SFRSYM    DATA     BYTE      P4MDIN
      000000F8H   SFRSYM    DATA     BYTE      SPI0CN
      00000080H   SFRSYM    DATA     BIT       P00
      00000080H.1 SFRSYM    DATA     BIT       P01
      00000090H   SFRSYM    DATA     BIT       P10
      00000087H   SFRSYM    DATA     BYTE      PCON
      00000080H.2 SFRSYM    DATA     BIT       P02
      00000090H.1 SFRSYM    DATA     BIT       P11
      000000A0H   SFRSYM    DATA     BIT       P20
      000000B4H   SFRSYM    DATA     BYTE      SBRLL1
      00000080H.3 SFRSYM    DATA     BIT       P03
      00000090H.2 SFRSYM    DATA     BIT       P12
      000000A0H.1 SFRSYM    DATA     BIT       P21
      000000B0H   SFRSYM    DATA     BIT       P30
      000000F8H.7 SFRSYM    DATA     BIT       SPIF
      00000080H.4 SFRSYM    DATA     BIT       P04
      00000090H.3 SFRSYM    DATA     BIT       P13
      000000A0H.2 SFRSYM    DATA     BIT       P22
      000000B0H.1 SFRSYM    DATA     BIT       P31
      00000080H.5 SFRSYM    DATA     BIT       P05
      00000090H.4 SFRSYM    DATA     BIT       P14
      000000A0H.3 SFRSYM    DATA     BIT       P23
      000000B0H.2 SFRSYM    DATA     BIT       P32
      00000089H   SFRSYM    DATA     BYTE      TMOD
      00000088H   SFRSYM    DATA     BYTE      TCON
      00000080H.6 SFRSYM    DATA     BIT       P06
      00000090H.5 SFRSYM    DATA     BIT       P15
      000000A0H.4 SFRSYM    DATA     BIT       P24
      000000B0H.3 SFRSYM    DATA     BIT       P33
      000000F8H.6 SFRSYM    DATA     BIT       WCOL
      00000080H.7 SFRSYM    DATA     BIT       P07
      00000090H.6 SFRSYM    DATA     BIT       P16
      000000A0H.5 SFRSYM    DATA     BIT       P25
      000000B0H.4 SFRSYM    DATA     BIT       P34
      000000F8H.2 SFRSYM    DATA     BIT       NSSMD0
      00000090H.7 SFRSYM    DATA     BIT       P17
      000000A0H.6 SFRSYM    DATA     BIT       P26
      000000B0H.5 SFRSYM    DATA     BIT       P35
      000000F8H.3 SFRSYM    DATA     BIT       NSSMD1
      000000C8H   SFRSYM    DATA     BYTE      TMR2CN
      000000A0H.7 SFRSYM    DATA     BIT       P27
      000000B0H.6 SFRSYM    DATA     BIT       P36
      00000091H   SFRSYM    DATA     BYTE      TMR3CN
      000000D4H   SFRSYM    DATA     BYTE      P0SKIP
      000000B0H.7 SFRSYM    DATA     BIT       P37
      000000C8H   SFRSYM    DATA     BIT       T2XCLK
      000000D5H   SFRSYM    DATA     BYTE      P1SKIP
      000000D6H   SFRSYM    DATA     BYTE      P2SKIP
      000000DFH   SFRSYM    DATA     BYTE      P3SKIP
      00000088H.1 SFRSYM    DATA     BIT       IE0
      0000009FH   SFRSYM    DATA     BYTE      CPT0MX
      00000088H.3 SFRSYM    DATA     BIT       IE1
      000000B3H   SFRSYM    DATA     BYTE      OSCICL
      0000009EH   SFRSYM    DATA     BYTE      CPT1MX
      000000A9H   SFRSYM    DATA     BYTE      CLKSEL
      000000B2H   SFRSYM    DATA     BYTE      OSCICN
      000000F0H   SFRSYM    DATA     BYTE      B
      000000BEH   SFRSYM    DATA     BYTE      ADC0H
      00000086H   SFRSYM    DATA     BYTE      OSCLCN
      000000BDH   SFRSYM    DATA     BYTE      ADC0L
LX51 LINKER/LOCATER V4.09                                                             09/01/2010  15:06:34  PAGE 21


      000000E0H   SFRSYM    DATA     BYTE      ACC
      000000A8H.4 SFRSYM    DATA     BIT       ES0
      000000A8H.1 SFRSYM    DATA     BIT       ET0
      000000E8H.7 SFRSYM    DATA     BIT       AD0EN
      00000088H.5 SFRSYM    DATA     BIT       TF0
      000000A8H.3 SFRSYM    DATA     BIT       ET1
      000000B9H   SFRSYM    DATA     BYTE      CLKMUL
      00000088H.7 SFRSYM    DATA     BIT       TF1
      00000098H   SFRSYM    DATA     BIT       RI0
      000000A8H.5 SFRSYM    DATA     BIT       ET2
      0000008CH   SFRSYM    DATA     BYTE      TH0
      00000088H   SFRSYM    DATA     BIT       IT0
      00000098H.1 SFRSYM    DATA     BIT       TI0
      000000A8H   SFRSYM    DATA     BIT       EX0
      0000008DH   SFRSYM    DATA     BYTE      TH1
      000000FAH   SFRSYM    DATA     BYTE      PCA0H
      00000088H.2 SFRSYM    DATA     BIT       IT1
      000000A8H.2 SFRSYM    DATA     BIT       EX1
      000000C0H.7 SFRSYM    DATA     BIT       MASTER
      000000C0H.1 SFRSYM    DATA     BIT       ACK
      0000008AH   SFRSYM    DATA     BYTE      TL0
      000000B1H   SFRSYM    DATA     BYTE      OSCXCN
      0000008BH   SFRSYM    DATA     BYTE      TL1
      000000F9H   SFRSYM    DATA     BYTE      PCA0L
      000000B8H.4 SFRSYM    DATA     BIT       PS0
      000000C0H.6 SFRSYM    DATA     BIT       TXMODE
      000000B8H.1 SFRSYM    DATA     BIT       PT0
      000000B8H.3 SFRSYM    DATA     BIT       PT1
      000000D0H.3 SFRSYM    DATA     BIT       RS0
      00000088H.4 SFRSYM    DATA     BIT       TR0
      000000B8H.5 SFRSYM    DATA     BIT       PT2
      000000D0H.4 SFRSYM    DATA     BIT       RS1
      00000088H.6 SFRSYM    DATA     BIT       TR1
      000000E8H.6 SFRSYM    DATA     BIT       AD0TM
      000000B8H   SFRSYM    DATA     BIT       PX0
      000000C8H.2 SFRSYM    DATA     BIT       TR2
      000000B8H.2 SFRSYM    DATA     BIT       PX1
      000000D0H   SFRSYM    DATA     BIT       PARITY
      00000083H   SFRSYM    DATA     BYTE      DPH
      000000C4H   SFRSYM    DATA     BYTE      ADC0GTH
      00000082H   SFRSYM    DATA     BYTE      DPL
      00000099H   SFRSYM    DATA     BYTE      SBUF0
      000000C3H   SFRSYM    DATA     BYTE      ADC0GTL
      000000A8H.6 SFRSYM    DATA     BIT       ESPI0
      000000D3H   SFRSYM    DATA     BYTE      SBUF1
      000000C6H   SFRSYM    DATA     BYTE      ADC0LTH
      000000EFH   SFRSYM    DATA     BYTE      RSTSRC
      00000098H   SFRSYM    DATA     BYTE      SCON0
      000000E5H   SFRSYM    DATA     BYTE      SMOD1
      000000D2H   SFRSYM    DATA     BYTE      SCON1
      000000BAH   SFRSYM    DATA     BYTE      AMX0N
      000000C5H   SFRSYM    DATA     BYTE      ADC0LTL
      000000BBH   SFRSYM    DATA     BYTE      AMX0P
      000000C0H.5 SFRSYM    DATA     BIT       STA
      000000B8H.6 SFRSYM    DATA     BIT       PSPI0
      000000C2H   SFRSYM    DATA     BYTE      SMB0DAT
      000000CDH   SFRSYM    DATA     BYTE      TMR2H
      000000A1H   SFRSYM    DATA     BYTE      SPI0CFG
      00000095H   SFRSYM    DATA     BYTE      TMR3H
      0000008EH   SFRSYM    DATA     BYTE      CKCON
      000000C8H.1 SFRSYM    DATA     BIT       T2CSS
      000000F0H   SFRSYM    DATA     BIT       B0
      000000F8H.4 SFRSYM    DATA     BIT       RXOVRN
      000000F0H.1 SFRSYM    DATA     BIT       B1
      000000CCH   SFRSYM    DATA     BYTE      TMR2L
LX51 LINKER/LOCATER V4.09                                                             09/01/2010  15:06:34  PAGE 22


      000000C0H.3 SFRSYM    DATA     BIT       ACKRQ
      000000F0H.2 SFRSYM    DATA     BIT       B2
      00000096H   SFRSYM    DATA     BYTE      USB0ADR
      00000094H   SFRSYM    DATA     BYTE      TMR3L
      000000F0H.3 SFRSYM    DATA     BIT       B3
      000000D0H.5 SFRSYM    DATA     BIT       F0
      000000F0H.4 SFRSYM    DATA     BIT       B4
      00000097H   SFRSYM    DATA     BYTE      USB0DAT
      000000B6H   SFRSYM    DATA     BYTE      FLSCL
      000000C0H.4 SFRSYM    DATA     BIT       STO
      000000D0H.1 SFRSYM    DATA     BIT       F1
      000000E8H   SFRSYM    DATA     BIT       AD0CM0
      000000F0H.5 SFRSYM    DATA     BIT       B5
      000000E0H   SFRSYM    DATA     BIT       ACC0
      000000E8H.1 SFRSYM    DATA     BIT       AD0CM1
      000000F0H.6 SFRSYM    DATA     BIT       B6
      000000A3H   SFRSYM    DATA     BYTE      SPI0DAT
      000000BEH   SFRSYM    DATA     WORD      ADC0
      000000E0H.1 SFRSYM    DATA     BIT       ACC1
      000000E8H.2 SFRSYM    DATA     BIT       AD0CM2
      000000F0H.7 SFRSYM    DATA     BIT       B7
      000000E0H.2 SFRSYM    DATA     BIT       ACC2
      000000E8H.3 SFRSYM    DATA     BIT       AD0WINT
      000000E0H.3 SFRSYM    DATA     BIT       ACC3
      000000E8H.4 SFRSYM    DATA     BIT       AD0BUSY
      000000D0H   SFRSYM    DATA     BYTE      PSW
      000000E0H.4 SFRSYM    DATA     BIT       ACC4
      00000098H.2 SFRSYM    DATA     BIT       RB80
      000000D8H   SFRSYM    DATA     BIT       CCF0
      000000E0H.5 SFRSYM    DATA     BIT       ACC5
      000000B7H   SFRSYM    DATA     BYTE      FLKEY
      000000D8H.1 SFRSYM    DATA     BIT       CCF1
      000000E0H.6 SFRSYM    DATA     BIT       ACC6

      01002B36H   BLOCK     CODE     ---       LVL=0
      ---         BLOCKEND  ---      ---       LVL=0

      01002CCDH   BLOCK     CODE     ---       LVL=0
      01002CCDH   LINE      CODE     ---       #33
      01002CCDH   LINE      CODE     ---       #34
      01002CCDH   LINE      CODE     ---       #35
      01002CD0H   LINE      CODE     ---       #37
      01002CD4H   LINE      CODE     ---       #38
      01002CD7H   LINE      CODE     ---       #39
      01002CDAH   LINE      CODE     ---       #40
      01002CDDH   LINE      CODE     ---       #41
      01002CE0H   LINE      CODE     ---       #42
      ---         BLOCKEND  ---      ---       LVL=0

      01001F34H   BLOCK     CODE     ---       LVL=0
      01001F34H   LINE      CODE     ---       #63
      01001F34H   LINE      CODE     ---       #64
      01001F34H   LINE      CODE     ---       #67
      01001F36H   LINE      CODE     ---       #68
      01001F38H   LINE      CODE     ---       #69
      01001F3BH   LINE      CODE     ---       #71
      01001F46H   LINE      CODE     ---       #72
      01001F46H   LINE      CODE     ---       #73
      01001F46H   LINE      CODE     ---       #74
      01001F46H   LINE      CODE     ---       #75
      01001F46H   LINE      CODE     ---       #76
      01001F46H   LINE      CODE     ---       #77
      01001F49H   LINE      CODE     ---       #79
      01001F64H   LINE      CODE     ---       #81
      01001F79H   LINE      CODE     ---       #83
LX51 LINKER/LOCATER V4.09                                                             09/01/2010  15:06:34  PAGE 23


      01001F7CH   LINE      CODE     ---       #84
      01001F80H   LINE      CODE     ---       #85
      01001F80H   LINE      CODE     ---       #87
      01001F8AH   LINE      CODE     ---       #88
      01001F8DH   LINE      CODE     ---       #89
      01001F90H   LINE      CODE     ---       #90
      01001F94H   LINE      CODE     ---       #91
      01001F95H   LINE      CODE     ---       #93
      01001F95H   LINE      CODE     ---       #94
      01001F95H   LINE      CODE     ---       #95
      01001F95H   LINE      CODE     ---       #96
      01001F95H   LINE      CODE     ---       #97
      01001F98H   LINE      CODE     ---       #99
      01001F9FH   LINE      CODE     ---       #101
      01001FA2H   LINE      CODE     ---       #102
      01001FA6H   LINE      CODE     ---       #103
      01001FA6H   LINE      CODE     ---       #105
      01001FAFH   LINE      CODE     ---       #106
      01001FB2H   LINE      CODE     ---       #107
      01001FB5H   LINE      CODE     ---       #108
      01001FB5H   LINE      CODE     ---       #109
      01001FB7H   LINE      CODE     ---       #111
      01001FB7H   LINE      CODE     ---       #112
      01001FBAH   LINE      CODE     ---       #113
      01001FBEH   LINE      CODE     ---       #114
      01001FBEH   LINE      CODE     ---       #115
      01001FBEH   LINE      CODE     ---       #125
      ---         BLOCKEND  ---      ---       LVL=0

      ---         MODULE    ---      ---       ARP
      0000001FH   PUBLIC    DATA     BYTE      waiting_for_arp
      020000E7H   PUBLIC    XDATA    ---       arp_cache
      01001354H   PUBLIC    CODE     ---       _arp_rcve
      0100233FH   PUBLIC    CODE     ---       _arp_resolve
      01002A5CH   PUBLIC    CODE     ---       arp_retransmit
      00000057H   PUBLIC    DATA     BYTE      ?_arp_send?BYTE
      01001B4AH   PUBLIC    CODE     ---       _arp_send
      01002993H   PUBLIC    CODE     ---       age_arp_cache
      01002CA1H   PUBLIC    CODE     ---       init_arp
      00000098H.3 SFRSYM    DATA     BIT       TB80
      000000D8H.2 SFRSYM    DATA     BIT       CCF2
      000000E0H.7 SFRSYM    DATA     BIT       ACC7
      000000A2H   SFRSYM    DATA     BYTE      SPI0CKR
      000000D8H.3 SFRSYM    DATA     BIT       CCF3
      00000080H   SFRSYM    DATA     BYTE      P0
      000000D8H.4 SFRSYM    DATA     BIT       CCF4
      000000F8H   SFRSYM    DATA     BIT       SPIEN
      00000090H   SFRSYM    DATA     BYTE      P1
      000000A0H   SFRSYM    DATA     BYTE      P2
      000000B0H   SFRSYM    DATA     BYTE      P3
      000000BCH   SFRSYM    DATA     BYTE      ADC0CF
      000000D0H.6 SFRSYM    DATA     BIT       AC
      000000C7H   SFRSYM    DATA     BYTE      P4
      000000E6H   SFRSYM    DATA     BYTE      EIE1
      00000098H.5 SFRSYM    DATA     BIT       MCE0
      000000A8H.7 SFRSYM    DATA     BIT       EA
      000000D7H   SFRSYM    DATA     BYTE      USB0XCN
      000000E7H   SFRSYM    DATA     BYTE      EIE2
      0000008FH   SFRSYM    DATA     BYTE      PSCTL
      000000D8H.7 SFRSYM    DATA     BIT       CF
      000000E4H   SFRSYM    DATA     BYTE      IT01CF
      000000E8H   SFRSYM    DATA     BYTE      ADC0CN
      000000A4H   SFRSYM    DATA     BYTE      P0MDOUT
      000000A5H   SFRSYM    DATA     BYTE      P1MDOUT
      000000CBH   SFRSYM    DATA     BYTE      TMR2RLH
LX51 LINKER/LOCATER V4.09                                                             09/01/2010  15:06:34  PAGE 24


      000000A6H   SFRSYM    DATA     BYTE      P2MDOUT
      000000A8H   SFRSYM    DATA     BYTE      IE
      000000C8H.4 SFRSYM    DATA     BIT       T2CE
      00000093H   SFRSYM    DATA     BYTE      TMR3RLH
      000000A7H   SFRSYM    DATA     BYTE      P3MDOUT
      000000AEH   SFRSYM    DATA     BYTE      P4MDOUT
      000000F6H   SFRSYM    DATA     BYTE      EIP1
      000000F8H.1 SFRSYM    DATA     BIT       TXBMT
      000000F7H   SFRSYM    DATA     BYTE      EIP2
      000000CAH   SFRSYM    DATA     BYTE      TMR2RLL
      000000FCH   SFRSYM    DATA     BYTE      PCA0CPH0
      00000092H   SFRSYM    DATA     BYTE      TMR3RLL
      000000EAH   SFRSYM    DATA     BYTE      PCA0CPH1
      000000ECH   SFRSYM    DATA     BYTE      PCA0CPH2
      000000C8H.7 SFRSYM    DATA     BIT       TF2H
      000000C8H.3 SFRSYM    DATA     BIT       T2SPLIT
      000000D8H.6 SFRSYM    DATA     BIT       CR
      000000EEH   SFRSYM    DATA     BYTE      PCA0CPH3
      00000098H.4 SFRSYM    DATA     BIT       REN0
      000000FBH   SFRSYM    DATA     BYTE      PCA0CPL0
      000000FEH   SFRSYM    DATA     BYTE      PCA0CPH4
      00000085H   SFRSYM    DATA     BYTE      EMI0CF
      000000D9H   SFRSYM    DATA     BYTE      PCA0MD
      000000DAH   SFRSYM    DATA     BYTE      PCA0CPM0
      000000E9H   SFRSYM    DATA     BYTE      PCA0CPL1
      000000D8H   SFRSYM    DATA     BYTE      PCA0CN
      000000DBH   SFRSYM    DATA     BYTE      PCA0CPM1
      000000EBH   SFRSYM    DATA     BYTE      PCA0CPL2
      000000C8H.6 SFRSYM    DATA     BIT       TF2L
      000000DCH   SFRSYM    DATA     BYTE      PCA0CPM2
      000000EDH   SFRSYM    DATA     BYTE      PCA0CPL3
      000000B8H   SFRSYM    DATA     BYTE      IP
      000000C0H.2 SFRSYM    DATA     BIT       ARBLOST
      000000DDH   SFRSYM    DATA     BYTE      PCA0CPM3
      000000FDH   SFRSYM    DATA     BYTE      PCA0CPL4
      000000DEH   SFRSYM    DATA     BYTE      PCA0CPM4
      000000C0H   SFRSYM    DATA     BIT       SI
      000000D0H.7 SFRSYM    DATA     BIT       CY
      000000E1H   SFRSYM    DATA     BYTE      XBR0
      000000C1H   SFRSYM    DATA     BYTE      SMB0CF
      000000E2H   SFRSYM    DATA     BYTE      XBR1
      000000AFH   SFRSYM    DATA     BYTE      PFE0CN
      000000AAH   SFRSYM    DATA     BYTE      EMI0CN
      000000E3H   SFRSYM    DATA     BYTE      XBR2
      000000D1H   SFRSYM    DATA     BYTE      REF0CN
      000000C9H   SFRSYM    DATA     BYTE      REG0CN
      000000E8H.5 SFRSYM    DATA     BIT       AD0INT
      00000081H   SFRSYM    DATA     BYTE      SP
      00000084H   SFRSYM    DATA     BYTE      EMI0TC
      000000D0H.2 SFRSYM    DATA     BIT       OV
      000000C0H   SFRSYM    DATA     BYTE      SMB0CN
      000000F8H.5 SFRSYM    DATA     BIT       MODF
      000000ACH   SFRSYM    DATA     BYTE      SBCON1
      00000098H.7 SFRSYM    DATA     BIT       S0MODE
      000000FFH   SFRSYM    DATA     BYTE      VDM0CN
      000000F1H   SFRSYM    DATA     BYTE      P0MDIN
      0000009DH   SFRSYM    DATA     BYTE      CPT0MD
      0000009BH   SFRSYM    DATA     BYTE      CPT0CN
      000000F2H   SFRSYM    DATA     BYTE      P1MDIN
      0000009CH   SFRSYM    DATA     BYTE      CPT1MD
      0000009AH   SFRSYM    DATA     BYTE      CPT1CN
      000000F3H   SFRSYM    DATA     BYTE      P2MDIN
      000000C8H.5 SFRSYM    DATA     BIT       TF2LEN
      000000F4H   SFRSYM    DATA     BYTE      P3MDIN
      000000B5H   SFRSYM    DATA     BYTE      SBRLH1
LX51 LINKER/LOCATER V4.09                                                             09/01/2010  15:06:34  PAGE 25


      000000F5H   SFRSYM    DATA     BYTE      P4MDIN
      000000F8H   SFRSYM    DATA     BYTE      SPI0CN
      00000080H   SFRSYM    DATA     BIT       P00
      00000080H.1 SFRSYM    DATA     BIT       P01
      00000090H   SFRSYM    DATA     BIT       P10
      00000087H   SFRSYM    DATA     BYTE      PCON
      00000080H.2 SFRSYM    DATA     BIT       P02
      00000090H.1 SFRSYM    DATA     BIT       P11
      000000A0H   SFRSYM    DATA     BIT       P20
      000000B4H   SFRSYM    DATA     BYTE      SBRLL1
      00000080H.3 SFRSYM    DATA     BIT       P03
      00000090H.2 SFRSYM    DATA     BIT       P12
      000000A0H.1 SFRSYM    DATA     BIT       P21
      000000B0H   SFRSYM    DATA     BIT       P30
      000000F8H.7 SFRSYM    DATA     BIT       SPIF
      00000080H.4 SFRSYM    DATA     BIT       P04
      00000090H.3 SFRSYM    DATA     BIT       P13
      000000A0H.2 SFRSYM    DATA     BIT       P22
      000000B0H.1 SFRSYM    DATA     BIT       P31
      00000080H.5 SFRSYM    DATA     BIT       P05
      00000090H.4 SFRSYM    DATA     BIT       P14
      000000A0H.3 SFRSYM    DATA     BIT       P23
      000000B0H.2 SFRSYM    DATA     BIT       P32
      00000089H   SFRSYM    DATA     BYTE      TMOD
      00000088H   SFRSYM    DATA     BYTE      TCON
      00000080H.6 SFRSYM    DATA     BIT       P06
      00000090H.5 SFRSYM    DATA     BIT       P15
      000000A0H.4 SFRSYM    DATA     BIT       P24
      000000B0H.3 SFRSYM    DATA     BIT       P33
      000000F8H.6 SFRSYM    DATA     BIT       WCOL
      00000080H.7 SFRSYM    DATA     BIT       P07
      00000090H.6 SFRSYM    DATA     BIT       P16
      000000A0H.5 SFRSYM    DATA     BIT       P25
      000000B0H.4 SFRSYM    DATA     BIT       P34
      000000F8H.2 SFRSYM    DATA     BIT       NSSMD0
      00000090H.7 SFRSYM    DATA     BIT       P17
      000000A0H.6 SFRSYM    DATA     BIT       P26
      000000B0H.5 SFRSYM    DATA     BIT       P35
      000000F8H.3 SFRSYM    DATA     BIT       NSSMD1
      000000C8H   SFRSYM    DATA     BYTE      TMR2CN
      000000A0H.7 SFRSYM    DATA     BIT       P27
      000000B0H.6 SFRSYM    DATA     BIT       P36
      00000091H   SFRSYM    DATA     BYTE      TMR3CN
      000000D4H   SFRSYM    DATA     BYTE      P0SKIP
      000000B0H.7 SFRSYM    DATA     BIT       P37
      000000C8H   SFRSYM    DATA     BIT       T2XCLK
      000000D5H   SFRSYM    DATA     BYTE      P1SKIP
      000000D6H   SFRSYM    DATA     BYTE      P2SKIP
      000000DFH   SFRSYM    DATA     BYTE      P3SKIP
      00000088H.1 SFRSYM    DATA     BIT       IE0
      0000009FH   SFRSYM    DATA     BYTE      CPT0MX
      00000088H.3 SFRSYM    DATA     BIT       IE1
      000000B3H   SFRSYM    DATA     BYTE      OSCICL
      0000009EH   SFRSYM    DATA     BYTE      CPT1MX
      000000A9H   SFRSYM    DATA     BYTE      CLKSEL
      000000B2H   SFRSYM    DATA     BYTE      OSCICN
      000000F0H   SFRSYM    DATA     BYTE      B
      000000BEH   SFRSYM    DATA     BYTE      ADC0H
      00000086H   SFRSYM    DATA     BYTE      OSCLCN
      000000BDH   SFRSYM    DATA     BYTE      ADC0L
      000000E0H   SFRSYM    DATA     BYTE      ACC
      000000A8H.4 SFRSYM    DATA     BIT       ES0
      000000A8H.1 SFRSYM    DATA     BIT       ET0
      000000E8H.7 SFRSYM    DATA     BIT       AD0EN
      00000088H.5 SFRSYM    DATA     BIT       TF0
LX51 LINKER/LOCATER V4.09                                                             09/01/2010  15:06:34  PAGE 26


      000000A8H.3 SFRSYM    DATA     BIT       ET1
      000000B9H   SFRSYM    DATA     BYTE      CLKMUL
      00000088H.7 SFRSYM    DATA     BIT       TF1
      00000098H   SFRSYM    DATA     BIT       RI0
      000000A8H.5 SFRSYM    DATA     BIT       ET2
      0000008CH   SFRSYM    DATA     BYTE      TH0
      00000088H   SFRSYM    DATA     BIT       IT0
      00000098H.1 SFRSYM    DATA     BIT       TI0
      000000A8H   SFRSYM    DATA     BIT       EX0
      0000008DH   SFRSYM    DATA     BYTE      TH1
      000000FAH   SFRSYM    DATA     BYTE      PCA0H
      00000088H.2 SFRSYM    DATA     BIT       IT1
      000000A8H.2 SFRSYM    DATA     BIT       EX1
      000000C0H.7 SFRSYM    DATA     BIT       MASTER
      000000C0H.1 SFRSYM    DATA     BIT       ACK
      0000008AH   SFRSYM    DATA     BYTE      TL0
      000000B1H   SFRSYM    DATA     BYTE      OSCXCN
      0000008BH   SFRSYM    DATA     BYTE      TL1
      000000F9H   SFRSYM    DATA     BYTE      PCA0L
      000000B8H.4 SFRSYM    DATA     BIT       PS0
      000000C0H.6 SFRSYM    DATA     BIT       TXMODE
      000000B8H.1 SFRSYM    DATA     BIT       PT0
      000000B8H.3 SFRSYM    DATA     BIT       PT1
      000000D0H.3 SFRSYM    DATA     BIT       RS0
      00000088H.4 SFRSYM    DATA     BIT       TR0
      000000B8H.5 SFRSYM    DATA     BIT       PT2
      000000D0H.4 SFRSYM    DATA     BIT       RS1
      00000088H.6 SFRSYM    DATA     BIT       TR1
      000000E8H.6 SFRSYM    DATA     BIT       AD0TM
      000000B8H   SFRSYM    DATA     BIT       PX0
      000000C8H.2 SFRSYM    DATA     BIT       TR2
      000000B8H.2 SFRSYM    DATA     BIT       PX1
      000000D0H   SFRSYM    DATA     BIT       PARITY
      00000083H   SFRSYM    DATA     BYTE      DPH
      000000C4H   SFRSYM    DATA     BYTE      ADC0GTH
      00000082H   SFRSYM    DATA     BYTE      DPL
      00000099H   SFRSYM    DATA     BYTE      SBUF0
      000000C3H   SFRSYM    DATA     BYTE      ADC0GTL
      000000A8H.6 SFRSYM    DATA     BIT       ESPI0
      000000D3H   SFRSYM    DATA     BYTE      SBUF1
      000000C6H   SFRSYM    DATA     BYTE      ADC0LTH
      000000EFH   SFRSYM    DATA     BYTE      RSTSRC
      00000098H   SFRSYM    DATA     BYTE      SCON0
      000000E5H   SFRSYM    DATA     BYTE      SMOD1
      000000D2H   SFRSYM    DATA     BYTE      SCON1
      000000BAH   SFRSYM    DATA     BYTE      AMX0N
      000000C5H   SFRSYM    DATA     BYTE      ADC0LTL
      000000BBH   SFRSYM    DATA     BYTE      AMX0P
      000000C0H.5 SFRSYM    DATA     BIT       STA
      000000B8H.6 SFRSYM    DATA     BIT       PSPI0
      000000C2H   SFRSYM    DATA     BYTE      SMB0DAT
      000000CDH   SFRSYM    DATA     BYTE      TMR2H
      000000A1H   SFRSYM    DATA     BYTE      SPI0CFG
      00000095H   SFRSYM    DATA     BYTE      TMR3H
      0000008EH   SFRSYM    DATA     BYTE      CKCON
      000000C8H.1 SFRSYM    DATA     BIT       T2CSS
      000000F0H   SFRSYM    DATA     BIT       B0
      000000F8H.4 SFRSYM    DATA     BIT       RXOVRN
      000000F0H.1 SFRSYM    DATA     BIT       B1
      000000CCH   SFRSYM    DATA     BYTE      TMR2L
      000000C0H.3 SFRSYM    DATA     BIT       ACKRQ
      000000F0H.2 SFRSYM    DATA     BIT       B2
      00000096H   SFRSYM    DATA     BYTE      USB0ADR
      00000094H   SFRSYM    DATA     BYTE      TMR3L
      000000F0H.3 SFRSYM    DATA     BIT       B3
LX51 LINKER/LOCATER V4.09                                                             09/01/2010  15:06:34  PAGE 27


      000000D0H.5 SFRSYM    DATA     BIT       F0
      000000F0H.4 SFRSYM    DATA     BIT       B4
      00000097H   SFRSYM    DATA     BYTE      USB0DAT
      000000B6H   SFRSYM    DATA     BYTE      FLSCL
      000000C0H.4 SFRSYM    DATA     BIT       STO
      000000D0H.1 SFRSYM    DATA     BIT       F1
      000000E8H   SFRSYM    DATA     BIT       AD0CM0
      000000F0H.5 SFRSYM    DATA     BIT       B5
      000000E0H   SFRSYM    DATA     BIT       ACC0
      000000E8H.1 SFRSYM    DATA     BIT       AD0CM1
      000000F0H.6 SFRSYM    DATA     BIT       B6
      000000A3H   SFRSYM    DATA     BYTE      SPI0DAT
      000000E0H.1 SFRSYM    DATA     BIT       ACC1
      000000E8H.2 SFRSYM    DATA     BIT       AD0CM2
      000000F0H.7 SFRSYM    DATA     BIT       B7
      000000E0H.2 SFRSYM    DATA     BIT       ACC2
      000000E8H.3 SFRSYM    DATA     BIT       AD0WINT
      000000E0H.3 SFRSYM    DATA     BIT       ACC3
      000000E8H.4 SFRSYM    DATA     BIT       AD0BUSY
      000000D0H   SFRSYM    DATA     BYTE      PSW
      000000E0H.4 SFRSYM    DATA     BIT       ACC4
      00000098H.2 SFRSYM    DATA     BIT       RB80
      000000D8H   SFRSYM    DATA     BIT       CCF0
      000000E0H.5 SFRSYM    DATA     BIT       ACC5
      000000B7H   SFRSYM    DATA     BYTE      FLKEY
      000000D8H.1 SFRSYM    DATA     BIT       CCF1
      000000E0H.6 SFRSYM    DATA     BIT       ACC6

      01001DC3H   BLOCK     CODE     ---       LVL=0
      ---         BLOCKEND  ---      ---       LVL=0

      01002CA1H   BLOCK     CODE     ---       LVL=0
      01002CA1H   LINE      CODE     ---       #32
      01002CA1H   LINE      CODE     ---       #33
      01002CA1H   LINE      CODE     ---       #34
      01002CAAH   LINE      CODE     ---       #35
      01002CB3H   LINE      CODE     ---       #36
      01002CB6H   LINE      CODE     ---       #37
      ---         BLOCKEND  ---      ---       LVL=0

      01002993H   BLOCK     CODE     ---       LVL=0
      01002993H   BLOCK     CODE     NEAR LAB  LVL=1
      00000026H   SYMBOL    DATA     BYTE      i
      ---         BLOCKEND  ---      ---       LVL=1
      01002993H   LINE      CODE     ---       #47
      01002993H   LINE      CODE     ---       #48
      01002993H   LINE      CODE     ---       #51
      01002996H   LINE      CODE     ---       #52
      01002996H   LINE      CODE     ---       #53
      010029A8H   LINE      CODE     ---       #54
      010029A8H   LINE      CODE     ---       #55
      010029B0H   LINE      CODE     ---       #56
      010029B8H   LINE      CODE     ---       #57
      010029B8H   LINE      CODE     ---       #60
      010029CEH   LINE      CODE     ---       #61
      010029CEH   LINE      CODE     ---       #62
      010029CEH   LINE      CODE     ---       #63
      010029D6H   LINE      CODE     ---       #64
      ---         BLOCKEND  ---      ---       LVL=0

      01001B4AH   BLOCK     CODE     ---       LVL=0
      00000057H   SYMBOL    DATA     ---       hwaddr
      0000005AH   SYMBOL    DATA     DWORD     ipaddr
      0000005EH   SYMBOL    DATA     BYTE      msg_type
      01001B58H   BLOCK     CODE     NEAR LAB  LVL=1
LX51 LINKER/LOCATER V4.09                                                             09/01/2010  15:06:34  PAGE 28


      0000005FH   SYMBOL    DATA     ---       outbuf
      00000061H   SYMBOL    DATA     ---       arp
      ---         BLOCKEND  ---      ---       LVL=1
      01001B4AH   LINE      CODE     ---       #75
      01001B58H   LINE      CODE     ---       #76
      01001B58H   LINE      CODE     ---       #84
      01001B5EH   LINE      CODE     ---       #87
      01001B69H   LINE      CODE     ---       #89
      01001B73H   LINE      CODE     ---       #90
      01001B81H   LINE      CODE     ---       #91
      01001B8BH   LINE      CODE     ---       #92
      01001B95H   LINE      CODE     ---       #93
      01001BA2H   LINE      CODE     ---       #96
      01001BAFH   LINE      CODE     ---       #97
      01001BBFH   LINE      CODE     ---       #100
      01001BDCH   LINE      CODE     ---       #101
      01001BE9H   LINE      CODE     ---       #103
      01001BFBH   LINE      CODE     ---       #108
      01001C08H   LINE      CODE     ---       #109
      01001C21H   LINE      CODE     ---       #110
      ---         BLOCKEND  ---      ---       LVL=0

      01002A5CH   BLOCK     CODE     ---       LVL=0
      01002A5CH   BLOCK     CODE     NEAR LAB  LVL=1
      000000B1H   SYMBOL    IDATA    BYTE      retries
      ---         BLOCKEND  ---      ---       LVL=1
      01002A5CH   LINE      CODE     ---       #120
      01002A5CH   LINE      CODE     ---       #121
      01002A5CH   LINE      CODE     ---       #124
      01002A66H   LINE      CODE     ---       #125
      01002A66H   LINE      CODE     ---       #126
      01002A68H   LINE      CODE     ---       #127
      01002A6BH   LINE      CODE     ---       #128
      01002A6BH   LINE      CODE     ---       #129
      01002A6EH   LINE      CODE     ---       #130
      01002A74H   LINE      CODE     ---       #131
      01002A74H   LINE      CODE     ---       #132
      01002A86H   LINE      CODE     ---       #133
      01002A8CH   LINE      CODE     ---       #134
      01002A8DH   LINE      CODE     ---       #136
      01002A8DH   LINE      CODE     ---       #137
      01002A92H   LINE      CODE     ---       #138
      01002A94H   LINE      CODE     ---       #140
      01002A94H   LINE      CODE     ---       #141
      01002A94H   LINE      CODE     ---       #142
      01002A94H   LINE      CODE     ---       #143
      ---         BLOCKEND  ---      ---       LVL=0

      0100233FH   BLOCK     CODE     ---       LVL=0
      00000052H   SYMBOL    DATA     DWORD     dest_ipaddr
      01002347H   BLOCK     CODE     NEAR LAB  LVL=1
      00000056H   SYMBOL    DATA     BYTE      i
      ---         BLOCKEND  ---      ---       LVL=1
      0100233FH   LINE      CODE     ---       #156
      01002347H   LINE      CODE     ---       #157
      01002347H   LINE      CODE     ---       #162
      01002373H   LINE      CODE     ---       #163
      01002373H   LINE      CODE     ---       #164
      01002384H   LINE      CODE     ---       #165
      01002384H   LINE      CODE     ---       #166
      01002387H   LINE      CODE     ---       #167
      01002387H   LINE      CODE     ---       #168
      01002395H   LINE      CODE     ---       #169
      01002395H   LINE      CODE     ---       #173
      01002398H   LINE      CODE     ---       #174
LX51 LINKER/LOCATER V4.09                                                             09/01/2010  15:06:34  PAGE 29


      01002398H   LINE      CODE     ---       #175
      010023ABH   LINE      CODE     ---       #176
      010023BCH   LINE      CODE     ---       #177
      010023C3H   LINE      CODE     ---       #180
      010023D7H   LINE      CODE     ---       #184
      010023DAH   LINE      CODE     ---       #187
      010023DDH   LINE      CODE     ---       #188
      ---         BLOCKEND  ---      ---       LVL=0

      01001354H   BLOCK     CODE     ---       LVL=0
      00000006H   SYMBOL    DATA     ---       inbuf
      01001354H   BLOCK     CODE     NEAR LAB  LVL=1
      00000076H   SYMBOL    IDATA    BYTE      i
      00000077H   SYMBOL    IDATA    BYTE      cached
      00000078H   SYMBOL    IDATA    BYTE      oldest
      00000079H   SYMBOL    IDATA    WORD      minimum
      00000028H   SYMBOL    DATA     ---       arp
      ---         BLOCKEND  ---      ---       LVL=1
      01001354H   LINE      CODE     ---       #199
      01001354H   LINE      CODE     ---       #200
      01001354H   LINE      CODE     ---       #205
      0100135DH   LINE      CODE     ---       #206
      01001361H   LINE      CODE     ---       #211
      01001389H   LINE      CODE     ---       #216
      01001392H   LINE      CODE     ---       #217
      01001392H   LINE      CODE     ---       #218
      010013A3H   LINE      CODE     ---       #219
      010013A3H   LINE      CODE     ---       #220
      010013AFH   LINE      CODE     ---       #221
      010013B5H   LINE      CODE     ---       #222
      010013B8H   LINE      CODE     ---       #224
      010013BAH   LINE      CODE     ---       #225
      010013BAH   LINE      CODE     ---       #226
      010013BFH   LINE      CODE     ---       #228
      010013DAH   LINE      CODE     ---       #232
      010013E2H   LINE      CODE     ---       #233
      010013E2H   LINE      CODE     ---       #236
      010013E9H   LINE      CODE     ---       #237
      010013E9H   LINE      CODE     ---       #238
      010013F1H   LINE      CODE     ---       #239
      010013F1H   LINE      CODE     ---       #240
      010013F9H   LINE      CODE     ---       #241
      01001404H   LINE      CODE     ---       #242
      0100140AH   LINE      CODE     ---       #243
      0100140CH   LINE      CODE     ---       #244
      0100140CH   LINE      CODE     ---       #245
      01001411H   LINE      CODE     ---       #249
      01001418H   LINE      CODE     ---       #250
      01001418H   LINE      CODE     ---       #252
      0100141FH   LINE      CODE     ---       #253
      01001428H   LINE      CODE     ---       #254
      01001428H   LINE      CODE     ---       #255
      01001439H   LINE      CODE     ---       #256
      01001439H   LINE      CODE     ---       #257
      01001444H   LINE      CODE     ---       #258
      01001448H   LINE      CODE     ---       #259
      01001448H   LINE      CODE     ---       #260
      0100144DH   LINE      CODE     ---       #263
      01001455H   LINE      CODE     ---       #264
      01001466H   LINE      CODE     ---       #265
      0100146EH   LINE      CODE     ---       #266
      0100146EH   LINE      CODE     ---       #267
      0100146EH   LINE      CODE     ---       #273
      01001476H   LINE      CODE     ---       #274
      01001476H   LINE      CODE     ---       #275
LX51 LINKER/LOCATER V4.09                                                             09/01/2010  15:06:34  PAGE 30


      0100148CH   LINE      CODE     ---       #276
      0100148CH   LINE      CODE     ---       #277
      0100148EH   LINE      CODE     ---       #278
      010014BAH   LINE      CODE     ---       #279
      010014BAH   LINE      CODE     ---       #280
      010014BAH   LINE      CODE     ---       #281
      010014C2H   LINE      CODE     ---       #282
      010014C2H   LINE      CODE     ---       #284
      010014D3H   LINE      CODE     ---       #285
      010014D3H   LINE      CODE     ---       #286
      ---         BLOCKEND  ---      ---       LVL=0

      ---         MODULE    ---      ---       HTTP
      00000020H.2 PUBLIC    BIT      BIT       CONTROL_LED
      00000034H   PUBLIC    DATA     BYTE      ?_http_server?BYTE
      01000C1EH   PUBLIC    CODE     ---       _http_server
      0000003EH   PUBLIC    DATA     BYTE      ?_replace_tag?BYTE
      0100270BH   PUBLIC    CODE     ---       _replace_tag
      010014D4H   PUBLIC    CODE     ---       _http_send
      00000046H   PUBLIC    DATA     BYTE      ?_strstr?BYTE
      01002694H   PUBLIC    CODE     ---       _strstr
      0000003EH   PUBLIC    DATA     BYTE      ?_itoa?BYTE
      01001FE6H   PUBLIC    CODE     ---       _itoa
      01002D1BH   PUBLIC    CODE     ---       init_http
      00000098H.3 SFRSYM    DATA     BIT       TB80
      000000D8H.2 SFRSYM    DATA     BIT       CCF2
      000000E0H.7 SFRSYM    DATA     BIT       ACC7
      000000A2H   SFRSYM    DATA     BYTE      SPI0CKR
      000000D8H.3 SFRSYM    DATA     BIT       CCF3
      00000080H   SFRSYM    DATA     BYTE      P0
      000000D8H.4 SFRSYM    DATA     BIT       CCF4
      000000F8H   SFRSYM    DATA     BIT       SPIEN
      00000090H   SFRSYM    DATA     BYTE      P1
      000000A0H   SFRSYM    DATA     BYTE      P2
      000000B0H   SFRSYM    DATA     BYTE      P3
      000000BCH   SFRSYM    DATA     BYTE      ADC0CF
      000000D0H.6 SFRSYM    DATA     BIT       AC
      000000C7H   SFRSYM    DATA     BYTE      P4
      000000E6H   SFRSYM    DATA     BYTE      EIE1
      00000098H.5 SFRSYM    DATA     BIT       MCE0
      000000A8H.7 SFRSYM    DATA     BIT       EA
      000000D7H   SFRSYM    DATA     BYTE      USB0XCN
      000000E7H   SFRSYM    DATA     BYTE      EIE2
      0000008FH   SFRSYM    DATA     BYTE      PSCTL
      000000D8H.7 SFRSYM    DATA     BIT       CF
      000000E4H   SFRSYM    DATA     BYTE      IT01CF
      000000E8H   SFRSYM    DATA     BYTE      ADC0CN
      000000A4H   SFRSYM    DATA     BYTE      P0MDOUT
      000000A5H   SFRSYM    DATA     BYTE      P1MDOUT
      000000CBH   SFRSYM    DATA     BYTE      TMR2RLH
      000000A6H   SFRSYM    DATA     BYTE      P2MDOUT
      000000A8H   SFRSYM    DATA     BYTE      IE
      000000C8H.4 SFRSYM    DATA     BIT       T2CE
      00000093H   SFRSYM    DATA     BYTE      TMR3RLH
      000000A7H   SFRSYM    DATA     BYTE      P3MDOUT
      000000AEH   SFRSYM    DATA     BYTE      P4MDOUT
      000000F6H   SFRSYM    DATA     BYTE      EIP1
      000000F8H.1 SFRSYM    DATA     BIT       TXBMT
      000000F7H   SFRSYM    DATA     BYTE      EIP2
      000000CAH   SFRSYM    DATA     BYTE      TMR2RLL
      000000FCH   SFRSYM    DATA     BYTE      PCA0CPH0
      00000092H   SFRSYM    DATA     BYTE      TMR3RLL
      000000EAH   SFRSYM    DATA     BYTE      PCA0CPH1
      000000ECH   SFRSYM    DATA     BYTE      PCA0CPH2
      000000C8H.7 SFRSYM    DATA     BIT       TF2H
LX51 LINKER/LOCATER V4.09                                                             09/01/2010  15:06:34  PAGE 31


      000000C8H.3 SFRSYM    DATA     BIT       T2SPLIT
      000000D8H.6 SFRSYM    DATA     BIT       CR
      000000EEH   SFRSYM    DATA     BYTE      PCA0CPH3
      00000098H.4 SFRSYM    DATA     BIT       REN0
      000000FBH   SFRSYM    DATA     BYTE      PCA0CPL0
      000000FEH   SFRSYM    DATA     BYTE      PCA0CPH4
      00000085H   SFRSYM    DATA     BYTE      EMI0CF
      000000D9H   SFRSYM    DATA     BYTE      PCA0MD
      000000DAH   SFRSYM    DATA     BYTE      PCA0CPM0
      000000E9H   SFRSYM    DATA     BYTE      PCA0CPL1
      000000D8H   SFRSYM    DATA     BYTE      PCA0CN
      000000DBH   SFRSYM    DATA     BYTE      PCA0CPM1
      000000EBH   SFRSYM    DATA     BYTE      PCA0CPL2
      000000C8H.6 SFRSYM    DATA     BIT       TF2L
      000000DCH   SFRSYM    DATA     BYTE      PCA0CPM2
      000000EDH   SFRSYM    DATA     BYTE      PCA0CPL3
      000000B8H   SFRSYM    DATA     BYTE      IP
      000000C0H.2 SFRSYM    DATA     BIT       ARBLOST
      000000DDH   SFRSYM    DATA     BYTE      PCA0CPM3
      000000FDH   SFRSYM    DATA     BYTE      PCA0CPL4
      000000DEH   SFRSYM    DATA     BYTE      PCA0CPM4
      000000C0H   SFRSYM    DATA     BIT       SI
      000000D0H.7 SFRSYM    DATA     BIT       CY
      000000E1H   SFRSYM    DATA     BYTE      XBR0
      000000C1H   SFRSYM    DATA     BYTE      SMB0CF
      000000E2H   SFRSYM    DATA     BYTE      XBR1
      000000AFH   SFRSYM    DATA     BYTE      PFE0CN
      000000AAH   SFRSYM    DATA     BYTE      EMI0CN
      000000E3H   SFRSYM    DATA     BYTE      XBR2
      000000D1H   SFRSYM    DATA     BYTE      REF0CN
      000000C9H   SFRSYM    DATA     BYTE      REG0CN
      000000E8H.5 SFRSYM    DATA     BIT       AD0INT
      00000081H   SFRSYM    DATA     BYTE      SP
      00000084H   SFRSYM    DATA     BYTE      EMI0TC
      000000D0H.2 SFRSYM    DATA     BIT       OV
      000000C0H   SFRSYM    DATA     BYTE      SMB0CN
      000000F8H.5 SFRSYM    DATA     BIT       MODF
      000000ACH   SFRSYM    DATA     BYTE      SBCON1
      00000098H.7 SFRSYM    DATA     BIT       S0MODE
      000000FFH   SFRSYM    DATA     BYTE      VDM0CN
      000000F1H   SFRSYM    DATA     BYTE      P0MDIN
      0000009DH   SFRSYM    DATA     BYTE      CPT0MD
      0000009BH   SFRSYM    DATA     BYTE      CPT0CN
      000000F2H   SFRSYM    DATA     BYTE      P1MDIN
      0000009CH   SFRSYM    DATA     BYTE      CPT1MD
      0000009AH   SFRSYM    DATA     BYTE      CPT1CN
      000000F3H   SFRSYM    DATA     BYTE      P2MDIN
      000000C8H.5 SFRSYM    DATA     BIT       TF2LEN
      000000F4H   SFRSYM    DATA     BYTE      P3MDIN
      000000B5H   SFRSYM    DATA     BYTE      SBRLH1
      000000F5H   SFRSYM    DATA     BYTE      P4MDIN
      000000F8H   SFRSYM    DATA     BYTE      SPI0CN
      00000080H   SFRSYM    DATA     BIT       P00
      00000080H.1 SFRSYM    DATA     BIT       P01
      00000090H   SFRSYM    DATA     BIT       P10
      00000087H   SFRSYM    DATA     BYTE      PCON
      00000080H.2 SFRSYM    DATA     BIT       P02
      00000090H.1 SFRSYM    DATA     BIT       P11
      000000A0H   SFRSYM    DATA     BIT       P20
      000000B4H   SFRSYM    DATA     BYTE      SBRLL1
      00000080H.3 SFRSYM    DATA     BIT       P03
      00000090H.2 SFRSYM    DATA     BIT       P12
      000000A0H.1 SFRSYM    DATA     BIT       P21
      000000B0H   SFRSYM    DATA     BIT       P30
      000000F8H.7 SFRSYM    DATA     BIT       SPIF
LX51 LINKER/LOCATER V4.09                                                             09/01/2010  15:06:34  PAGE 32


      00000080H.4 SFRSYM    DATA     BIT       P04
      00000090H.3 SFRSYM    DATA     BIT       P13
      000000A0H.2 SFRSYM    DATA     BIT       P22
      000000B0H.1 SFRSYM    DATA     BIT       P31
      00000080H.5 SFRSYM    DATA     BIT       P05
      00000090H.4 SFRSYM    DATA     BIT       P14
      000000A0H.3 SFRSYM    DATA     BIT       P23
      000000B0H.2 SFRSYM    DATA     BIT       P32
      00000089H   SFRSYM    DATA     BYTE      TMOD
      00000088H   SFRSYM    DATA     BYTE      TCON
      00000080H.6 SFRSYM    DATA     BIT       P06
      00000090H.5 SFRSYM    DATA     BIT       P15
      000000A0H.4 SFRSYM    DATA     BIT       P24
      000000B0H.3 SFRSYM    DATA     BIT       P33
      000000F8H.6 SFRSYM    DATA     BIT       WCOL
      00000080H.7 SFRSYM    DATA     BIT       P07
      00000090H.6 SFRSYM    DATA     BIT       P16
      000000A0H.5 SFRSYM    DATA     BIT       P25
      000000B0H.4 SFRSYM    DATA     BIT       P34
      000000F8H.2 SFRSYM    DATA     BIT       NSSMD0
      00000090H.7 SFRSYM    DATA     BIT       P17
      000000A0H.6 SFRSYM    DATA     BIT       P26
      000000B0H.5 SFRSYM    DATA     BIT       P35
      000000F8H.3 SFRSYM    DATA     BIT       NSSMD1
      000000C8H   SFRSYM    DATA     BYTE      TMR2CN
      000000A0H.7 SFRSYM    DATA     BIT       P27
      000000B0H.6 SFRSYM    DATA     BIT       P36
      00000091H   SFRSYM    DATA     BYTE      TMR3CN
      000000D4H   SFRSYM    DATA     BYTE      P0SKIP
      000000B0H.7 SFRSYM    DATA     BIT       P37
      000000C8H   SFRSYM    DATA     BIT       T2XCLK
      000000D5H   SFRSYM    DATA     BYTE      P1SKIP
      000000D6H   SFRSYM    DATA     BYTE      P2SKIP
      000000DFH   SFRSYM    DATA     BYTE      P3SKIP
      00000088H.1 SFRSYM    DATA     BIT       IE0
      0000009FH   SFRSYM    DATA     BYTE      CPT0MX
      00000088H.3 SFRSYM    DATA     BIT       IE1
      000000B3H   SFRSYM    DATA     BYTE      OSCICL
      0000009EH   SFRSYM    DATA     BYTE      CPT1MX
      000000A9H   SFRSYM    DATA     BYTE      CLKSEL
      000000B2H   SFRSYM    DATA     BYTE      OSCICN
      000000F0H   SFRSYM    DATA     BYTE      B
      000000BEH   SFRSYM    DATA     BYTE      ADC0H
      00000086H   SFRSYM    DATA     BYTE      OSCLCN
      000000BDH   SFRSYM    DATA     BYTE      ADC0L
      000000E0H   SFRSYM    DATA     BYTE      ACC
      000000A8H.4 SFRSYM    DATA     BIT       ES0
      000000A8H.1 SFRSYM    DATA     BIT       ET0
      000000E8H.7 SFRSYM    DATA     BIT       AD0EN
      00000088H.5 SFRSYM    DATA     BIT       TF0
      000000A8H.3 SFRSYM    DATA     BIT       ET1
      000000B9H   SFRSYM    DATA     BYTE      CLKMUL
      00000088H.7 SFRSYM    DATA     BIT       TF1
      00000098H   SFRSYM    DATA     BIT       RI0
      000000A8H.5 SFRSYM    DATA     BIT       ET2
      0000008CH   SFRSYM    DATA     BYTE      TH0
      00000088H   SFRSYM    DATA     BIT       IT0
      00000098H.1 SFRSYM    DATA     BIT       TI0
      000000A8H   SFRSYM    DATA     BIT       EX0
      0000008DH   SFRSYM    DATA     BYTE      TH1
      000000FAH   SFRSYM    DATA     BYTE      PCA0H
      00000088H.2 SFRSYM    DATA     BIT       IT1
      000000A8H.2 SFRSYM    DATA     BIT       EX1
      000000C0H.7 SFRSYM    DATA     BIT       MASTER
      000000C0H.1 SFRSYM    DATA     BIT       ACK
LX51 LINKER/LOCATER V4.09                                                             09/01/2010  15:06:34  PAGE 33


      0000008AH   SFRSYM    DATA     BYTE      TL0
      000000B1H   SFRSYM    DATA     BYTE      OSCXCN
      0000008BH   SFRSYM    DATA     BYTE      TL1
      000000F9H   SFRSYM    DATA     BYTE      PCA0L
      000000B8H.4 SFRSYM    DATA     BIT       PS0
      000000C0H.6 SFRSYM    DATA     BIT       TXMODE
      000000B8H.1 SFRSYM    DATA     BIT       PT0
      000000B8H.3 SFRSYM    DATA     BIT       PT1
      000000D0H.3 SFRSYM    DATA     BIT       RS0
      00000088H.4 SFRSYM    DATA     BIT       TR0
      000000B8H.5 SFRSYM    DATA     BIT       PT2
      000000D0H.4 SFRSYM    DATA     BIT       RS1
      00000088H.6 SFRSYM    DATA     BIT       TR1
      000000E8H.6 SFRSYM    DATA     BIT       AD0TM
      000000B8H   SFRSYM    DATA     BIT       PX0
      000000C8H.2 SFRSYM    DATA     BIT       TR2
      000000B8H.2 SFRSYM    DATA     BIT       PX1
      000000D0H   SFRSYM    DATA     BIT       PARITY
      00000083H   SFRSYM    DATA     BYTE      DPH
      000000C4H   SFRSYM    DATA     BYTE      ADC0GTH
      00000082H   SFRSYM    DATA     BYTE      DPL
      00000099H   SFRSYM    DATA     BYTE      SBUF0
      000000C3H   SFRSYM    DATA     BYTE      ADC0GTL
      000000A8H.6 SFRSYM    DATA     BIT       ESPI0
      000000D3H   SFRSYM    DATA     BYTE      SBUF1
      000000C6H   SFRSYM    DATA     BYTE      ADC0LTH
      000000EFH   SFRSYM    DATA     BYTE      RSTSRC
      00000098H   SFRSYM    DATA     BYTE      SCON0
      000000E5H   SFRSYM    DATA     BYTE      SMOD1
      000000D2H   SFRSYM    DATA     BYTE      SCON1
      000000BAH   SFRSYM    DATA     BYTE      AMX0N
      000000C5H   SFRSYM    DATA     BYTE      ADC0LTL
      000000BBH   SFRSYM    DATA     BYTE      AMX0P
      000000C0H.5 SFRSYM    DATA     BIT       STA
      000000B8H.6 SFRSYM    DATA     BIT       PSPI0
      000000C2H   SFRSYM    DATA     BYTE      SMB0DAT
      000000CDH   SFRSYM    DATA     BYTE      TMR2H
      000000A1H   SFRSYM    DATA     BYTE      SPI0CFG
      00000095H   SFRSYM    DATA     BYTE      TMR3H
      0000008EH   SFRSYM    DATA     BYTE      CKCON
      000000C8H.1 SFRSYM    DATA     BIT       T2CSS
      000000F0H   SFRSYM    DATA     BIT       B0
      000000F8H.4 SFRSYM    DATA     BIT       RXOVRN
      000000F0H.1 SFRSYM    DATA     BIT       B1
      000000CCH   SFRSYM    DATA     BYTE      TMR2L
      000000C0H.3 SFRSYM    DATA     BIT       ACKRQ
      000000F0H.2 SFRSYM    DATA     BIT       B2
      00000096H   SFRSYM    DATA     BYTE      USB0ADR
      00000094H   SFRSYM    DATA     BYTE      TMR3L
      000000F0H.3 SFRSYM    DATA     BIT       B3
      000000D0H.5 SFRSYM    DATA     BIT       F0
      000000F0H.4 SFRSYM    DATA     BIT       B4
      00000097H   SFRSYM    DATA     BYTE      USB0DAT
      000000B6H   SFRSYM    DATA     BYTE      FLSCL
      000000C0H.4 SFRSYM    DATA     BIT       STO
      000000D0H.1 SFRSYM    DATA     BIT       F1
      000000E8H   SFRSYM    DATA     BIT       AD0CM0
      000000F0H.5 SFRSYM    DATA     BIT       B5
      000000E0H   SFRSYM    DATA     BIT       ACC0
      000000E8H.1 SFRSYM    DATA     BIT       AD0CM1
      000000F0H.6 SFRSYM    DATA     BIT       B6
      000000A3H   SFRSYM    DATA     BYTE      SPI0DAT
      000000E0H.1 SFRSYM    DATA     BIT       ACC1
      000000E8H.2 SFRSYM    DATA     BIT       AD0CM2
      000000F0H.7 SFRSYM    DATA     BIT       B7
LX51 LINKER/LOCATER V4.09                                                             09/01/2010  15:06:34  PAGE 34


      000000E0H.2 SFRSYM    DATA     BIT       ACC2
      000000E8H.3 SFRSYM    DATA     BIT       AD0WINT
      000000E0H.3 SFRSYM    DATA     BIT       ACC3
      000000E8H.4 SFRSYM    DATA     BIT       AD0BUSY
      000000D0H   SFRSYM    DATA     BYTE      PSW
      000000E0H.4 SFRSYM    DATA     BIT       ACC4
      00000098H.2 SFRSYM    DATA     BIT       RB80
      000000D8H   SFRSYM    DATA     BIT       CCF0
      000000E0H.5 SFRSYM    DATA     BIT       ACC5
      000000B7H   SFRSYM    DATA     BYTE      FLKEY
      000000D8H.1 SFRSYM    DATA     BIT       CCF1
      000000E0H.6 SFRSYM    DATA     BIT       ACC6

      01001845H   BLOCK     CODE     ---       LVL=0
      ---         BLOCKEND  ---      ---       LVL=0

      01002D1BH   BLOCK     CODE     ---       LVL=0
      01002D1BH   LINE      CODE     ---       #42
      01002D1BH   LINE      CODE     ---       #43
      01002D1BH   LINE      CODE     ---       #44
      01002D1DH   LINE      CODE     ---       #45
      ---         BLOCKEND  ---      ---       LVL=0

      01001FE6H   BLOCK     CODE     ---       LVL=0
      0000003EH   SYMBOL    DATA     WORD      value
      00000040H   SYMBOL    DATA     ---       buf
      00000043H   SYMBOL    DATA     BYTE      radix
      01001FF0H   BLOCK     CODE     NEAR LAB  LVL=1
      00000044H   SYMBOL    DATA     WORD      i
      00000046H   SYMBOL    DATA     ---       ptr
      00000049H   SYMBOL    DATA     ---       temphold
      ---         BLOCKEND  ---      ---       LVL=1
      01001FE6H   LINE      CODE     ---       #48
      01001FF0H   LINE      CODE     ---       #49
      01001FF0H   LINE      CODE     ---       #54
      01001FF6H   LINE      CODE     ---       #55
      01002002H   LINE      CODE     ---       #56
      01002014H   LINE      CODE     ---       #58
      01002014H   LINE      CODE     ---       #60
      01002029H   LINE      CODE     ---       #61
      01002034H   LINE      CODE     ---       #62
      0100203FH   LINE      CODE     ---       #63
      01002052H   LINE      CODE     ---       #64
      01002061H   LINE      CODE     ---       #65
      01002067H   LINE      CODE     ---       #69
      0100208DH   LINE      CODE     ---       #70
      01002093H   LINE      CODE     ---       #71
      ---         BLOCKEND  ---      ---       LVL=0

      01002694H   BLOCK     CODE     ---       LVL=0
      00000046H   SYMBOL    DATA     ---       haystack
      00000049H   SYMBOL    DATA     ---       needle
      0100269AH   BLOCK     CODE     NEAR LAB  LVL=1
      0000004CH   SYMBOL    DATA     ---       ptr1
      0000004FH   SYMBOL    DATA     ---       ptr2
      ---         BLOCKEND  ---      ---       LVL=1
      01002694H   LINE      CODE     ---       #78
      0100269AH   LINE      CODE     ---       #79
      0100269AH   LINE      CODE     ---       #83
      010026A7H   LINE      CODE     ---       #84
      010026B2H   LINE      CODE     ---       #85
      010026B2H   LINE      CODE     ---       #89
      010026EBH   LINE      CODE     ---       #92
      010026F7H   LINE      CODE     ---       #93
      01002704H   LINE      CODE     ---       #94
LX51 LINKER/LOCATER V4.09                                                             09/01/2010  15:06:34  PAGE 35


      0100270AH   LINE      CODE     ---       #95
      ---         BLOCKEND  ---      ---       LVL=0

      010014D4H   BLOCK     CODE     ---       LVL=0
      0000003EH   SYMBOL    DATA     ---       outbuf
      00000040H   SYMBOL    DATA     WORD      len
      00000042H   SYMBOL    DATA     BYTE      nr
      010014DEH   BLOCK     CODE     NEAR LAB  LVL=1
      00000043H   SYMBOL    DATA     ---       tcp
      00000045H   SYMBOL    DATA     ---       ip
      00000096H   SYMBOL    IDATA    DWORD     sum
      0000009AH   SYMBOL    IDATA    WORD      result
      ---         BLOCKEND  ---      ---       LVL=1
      010014D4H   LINE      CODE     ---       #104
      010014DEH   LINE      CODE     ---       #105
      010014DEH   LINE      CODE     ---       #112
      010014E7H   LINE      CODE     ---       #113
      010014F0H   LINE      CODE     ---       #115
      010014FCH   LINE      CODE     ---       #116
      0100151AH   LINE      CODE     ---       #117
      0100152DH   LINE      CODE     ---       #118
      01001546H   LINE      CODE     ---       #121
      01001554H   LINE      CODE     ---       #122
      01001561H   LINE      CODE     ---       #123
      01001568H   LINE      CODE     ---       #124
      01001572H   LINE      CODE     ---       #128
      0100157DH   LINE      CODE     ---       #129
      0100158AH   LINE      CODE     ---       #132
      010015A2H   LINE      CODE     ---       #136
      010015B5H   LINE      CODE     ---       #137
      010015C8H   LINE      CODE     ---       #140
      010015E8H   LINE      CODE     ---       #141
      010015F4H   LINE      CODE     ---       #143
      0100160FH   LINE      CODE     ---       #146
      0100161FH   LINE      CODE     ---       #147
      ---         BLOCKEND  ---      ---       LVL=0

      0100270BH   BLOCK     CODE     ---       LVL=0
      00000006H   SYMBOL    DATA     ---       start
      00000040H   SYMBOL    DATA     ---       tag
      00000043H   SYMBOL    DATA     ---       sub
      01002711H   BLOCK     CODE     NEAR LAB  LVL=1
      00000096H   SYMBOL    IDATA    BYTE      i
      00000097H   SYMBOL    IDATA    BYTE      flg
      00000006H   SYMBOL    DATA     ---       ptr
      ---         BLOCKEND  ---      ---       LVL=1
      0100270BH   LINE      CODE     ---       #157
      01002711H   LINE      CODE     ---       #158
      01002711H   LINE      CODE     ---       #163
      01002727H   LINE      CODE     ---       #164
      0100272BH   LINE      CODE     ---       #166
      0100272FH   LINE      CODE     ---       #170
      0100273BH   LINE      CODE     ---       #171
      0100273BH   LINE      CODE     ---       #172
      0100274FH   LINE      CODE     ---       #173
      0100276EH   LINE      CODE     ---       #174
      01002773H   LINE      CODE     ---       #175
      ---         BLOCKEND  ---      ---       LVL=0

      01000C1EH   BLOCK     CODE     ---       LVL=0
      00000034H   SYMBOL    DATA     ---       inbuf
      00000004H   SYMBOL    DATA     WORD      header_len
      00000038H   SYMBOL    DATA     BYTE      nr
      00000039H   SYMBOL    DATA     BYTE      resend
      01000C24H   BLOCK     CODE     NEAR LAB  LVL=1
LX51 LINKER/LOCATER V4.09                                                             09/01/2010  15:06:34  PAGE 36


      00000003H   SYMBOL    DATA     BYTE      i
      00000087H   SYMBOL    IDATA    WORD      body_len
      00000089H   SYMBOL    IDATA    WORD      hhdr_len
      0000008BH   SYMBOL    IDATA    WORD      jhdr_len
      0000008DH   SYMBOL    IDATA    WORD      page_len
      0000008FH   SYMBOL    IDATA    WORD      jpeg_len
      00000091H   SYMBOL    IDATA    WORD      sent
      00000093H   SYMBOL    IDATA    WORD      remaining
      0000003AH   SYMBOL    DATA     ---       outbuf
      00000082H   SYMBOL    DATA     ---       ptr
      0000003CH   SYMBOL    DATA     ---       tcp_data
      00000095H   SYMBOL    IDATA    BYTE      request
      000000B2H   SYMBOL    IDATA    BYTE      post_flg
      ---         BLOCKEND  ---      ---       LVL=1
      01000C1EH   LINE      CODE     ---       #189
      01000C24H   LINE      CODE     ---       #190
      01000C24H   LINE      CODE     ---       #201
      01000C2CH   LINE      CODE     ---       #208
      01000C30H   LINE      CODE     ---       #209
      01000C30H   LINE      CODE     ---       #210
      01000C41H   LINE      CODE     ---       #211
      01000C63H   LINE      CODE     ---       #212
      01000C6DH   LINE      CODE     ---       #213
      01000C6FH   LINE      CODE     ---       #217
      01000C6FH   LINE      CODE     ---       #218
      01000C75H   LINE      CODE     ---       #219
      01000C84H   LINE      CODE     ---       #220
      01000C84H   LINE      CODE     ---       #223
      01000C86H   LINE      CODE     ---       #233
      01000C9AH   LINE      CODE     ---       #236
      01000CA8H   LINE      CODE     ---       #237
      01000CA8H   LINE      CODE     ---       #238
      01000CAAH   LINE      CODE     ---       #239
      01000CBEH   LINE      CODE     ---       #240
      01000CCEH   LINE      CODE     ---       #241
      01000CE3H   LINE      CODE     ---       #242
      01000CE3H   LINE      CODE     ---       #247
      01000CE8H   LINE      CODE     ---       #248
      01000CE8H   LINE      CODE     ---       #249
      01000CF8H   LINE      CODE     ---       #250
      01000CFEH   LINE      CODE     ---       #251
      01000CFEH   LINE      CODE     ---       #254
      01000D00H   LINE      CODE     ---       #255
      01000D04H   LINE      CODE     ---       #256
      01000D0FH   LINE      CODE     ---       #257
      01000D18H   LINE      CODE     ---       #258
      01000D1EH   LINE      CODE     ---       #259
      01000D25H   LINE      CODE     ---       #260
      01000D29H   LINE      CODE     ---       #261
      01000D2DH   LINE      CODE     ---       #262
      01000D2DH   LINE      CODE     ---       #263
      01000D2DH   LINE      CODE     ---       #265
      01000D3DH   LINE      CODE     ---       #266
      01000D3DH   LINE      CODE     ---       #268
      01000D4DH   LINE      CODE     ---       #269
      01000D5DH   LINE      CODE     ---       #270
      01000D68H   LINE      CODE     ---       #275
      01000D6FH   LINE      CODE     ---       #285
      01000D72H   LINE      CODE     ---       #289
      01000D7BH   LINE      CODE     ---       #290
      01000D90H   LINE      CODE     ---       #292
      01000D95H   LINE      CODE     ---       #295
      01000D97H   LINE      CODE     ---       #296
      01000DA1H   LINE      CODE     ---       #299
      01000DA7H   LINE      CODE     ---       #300
LX51 LINKER/LOCATER V4.09                                                             09/01/2010  15:06:34  PAGE 37


      01000DA7H   LINE      CODE     ---       #301
      01000DA7H   LINE      CODE     ---       #302
      01000DAAH   LINE      CODE     ---       #303
      01000DB8H   LINE      CODE     ---       #304
      01000DC2H   LINE      CODE     ---       #315
      01000DC8H   LINE      CODE     ---       #316
      01000DC8H   LINE      CODE     ---       #317
      01000DC8H   LINE      CODE     ---       #318
      01000DCBH   LINE      CODE     ---       #319
      01000DD9H   LINE      CODE     ---       #320
      01000DE3H   LINE      CODE     ---       #324
      01000DF8H   LINE      CODE     ---       #325
      01000E02H   LINE      CODE     ---       #328
      01000E07H   LINE      CODE     ---       #329
      01000E27H   LINE      CODE     ---       #330
      01000E2AH   LINE      CODE     ---       #331
      01000E34H   LINE      CODE     ---       #332
      01000E34H   LINE      CODE     ---       #336
      01000E44H   LINE      CODE     ---       #337
      01000E4BH   LINE      CODE     ---       #338
      01000E55H   LINE      CODE     ---       #343
      01000E5CH   LINE      CODE     ---       #347
      01000E75H   LINE      CODE     ---       #353
      01000E78H   LINE      CODE     ---       #354
      01000E81H   LINE      CODE     ---       #355
      01000E92H   LINE      CODE     ---       #357
      01000E97H   LINE      CODE     ---       #360
      01000E99H   LINE      CODE     ---       #361
      01000EA3H   LINE      CODE     ---       #363
      01000EA8H   LINE      CODE     ---       #364
      01000EB1H   LINE      CODE     ---       #365
      01000EB4H   LINE      CODE     ---       #371
      01000EC7H   LINE      CODE     ---       #372
      01000EC7H   LINE      CODE     ---       #373
      01000ED6H   LINE      CODE     ---       #374
      01000EE4H   LINE      CODE     ---       #376
      01000EE7H   LINE      CODE     ---       #382
      01000F05H   LINE      CODE     ---       #384
      01000F1BH   LINE      CODE     ---       #385
      01000F2BH   LINE      CODE     ---       #386
      01000F36H   LINE      CODE     ---       #387
      01000F57H   LINE      CODE     ---       #388
      01000F5AH   LINE      CODE     ---       #389
      01000F5AH   LINE      CODE     ---       #391
      01000F5AH   LINE      CODE     ---       #393
      01000F5EH   LINE      CODE     ---       #394
      01000F5EH   LINE      CODE     ---       #397
      01000F61H   LINE      CODE     ---       #398
      ---         BLOCKEND  ---      ---       LVL=0

      ---         MODULE    ---      ---       ICMP
      010027DDH   PUBLIC    CODE     ---       _icmp_rcve
      00000032H   PUBLIC    DATA     BYTE      ?_dest_unreach_send?BYTE
      010023DEH   PUBLIC    CODE     ---       _dest_unreach_send
      00000033H   PUBLIC    DATA     BYTE      ?_ping_send?BYTE
      010021EFH   PUBLIC    CODE     ---       _ping_send
      00000098H.3 SFRSYM    DATA     BIT       TB80
      000000D8H.2 SFRSYM    DATA     BIT       CCF2
      000000E0H.7 SFRSYM    DATA     BIT       ACC7
      000000A2H   SFRSYM    DATA     BYTE      SPI0CKR
      000000D8H.3 SFRSYM    DATA     BIT       CCF3
      00000080H   SFRSYM    DATA     BYTE      P0
      000000D8H.4 SFRSYM    DATA     BIT       CCF4
      000000F8H   SFRSYM    DATA     BIT       SPIEN
      00000090H   SFRSYM    DATA     BYTE      P1
LX51 LINKER/LOCATER V4.09                                                             09/01/2010  15:06:34  PAGE 38


      000000A0H   SFRSYM    DATA     BYTE      P2
      000000B0H   SFRSYM    DATA     BYTE      P3
      000000BCH   SFRSYM    DATA     BYTE      ADC0CF
      000000D0H.6 SFRSYM    DATA     BIT       AC
      000000C7H   SFRSYM    DATA     BYTE      P4
      000000E6H   SFRSYM    DATA     BYTE      EIE1
      00000098H.5 SFRSYM    DATA     BIT       MCE0
      000000A8H.7 SFRSYM    DATA     BIT       EA
      000000D7H   SFRSYM    DATA     BYTE      USB0XCN
      000000E7H   SFRSYM    DATA     BYTE      EIE2
      0000008FH   SFRSYM    DATA     BYTE      PSCTL
      000000D8H.7 SFRSYM    DATA     BIT       CF
      000000E4H   SFRSYM    DATA     BYTE      IT01CF
      000000E8H   SFRSYM    DATA     BYTE      ADC0CN
      000000A4H   SFRSYM    DATA     BYTE      P0MDOUT
      000000A5H   SFRSYM    DATA     BYTE      P1MDOUT
      000000CBH   SFRSYM    DATA     BYTE      TMR2RLH
      000000A6H   SFRSYM    DATA     BYTE      P2MDOUT
      000000A8H   SFRSYM    DATA     BYTE      IE
      000000C8H.4 SFRSYM    DATA     BIT       T2CE
      00000093H   SFRSYM    DATA     BYTE      TMR3RLH
      000000A7H   SFRSYM    DATA     BYTE      P3MDOUT
      000000AEH   SFRSYM    DATA     BYTE      P4MDOUT
      000000F6H   SFRSYM    DATA     BYTE      EIP1
      000000F8H.1 SFRSYM    DATA     BIT       TXBMT
      000000F7H   SFRSYM    DATA     BYTE      EIP2
      000000CAH   SFRSYM    DATA     BYTE      TMR2RLL
      000000FCH   SFRSYM    DATA     BYTE      PCA0CPH0
      00000092H   SFRSYM    DATA     BYTE      TMR3RLL
      000000EAH   SFRSYM    DATA     BYTE      PCA0CPH1
      000000ECH   SFRSYM    DATA     BYTE      PCA0CPH2
      000000C8H.7 SFRSYM    DATA     BIT       TF2H
      000000C8H.3 SFRSYM    DATA     BIT       T2SPLIT
      000000D8H.6 SFRSYM    DATA     BIT       CR
      000000EEH   SFRSYM    DATA     BYTE      PCA0CPH3
      00000098H.4 SFRSYM    DATA     BIT       REN0
      000000FBH   SFRSYM    DATA     BYTE      PCA0CPL0
      000000FEH   SFRSYM    DATA     BYTE      PCA0CPH4
      00000085H   SFRSYM    DATA     BYTE      EMI0CF
      000000D9H   SFRSYM    DATA     BYTE      PCA0MD
      000000DAH   SFRSYM    DATA     BYTE      PCA0CPM0
      000000E9H   SFRSYM    DATA     BYTE      PCA0CPL1
      000000D8H   SFRSYM    DATA     BYTE      PCA0CN
      000000DBH   SFRSYM    DATA     BYTE      PCA0CPM1
      000000EBH   SFRSYM    DATA     BYTE      PCA0CPL2
      000000C8H.6 SFRSYM    DATA     BIT       TF2L
      000000DCH   SFRSYM    DATA     BYTE      PCA0CPM2
      000000EDH   SFRSYM    DATA     BYTE      PCA0CPL3
      000000B8H   SFRSYM    DATA     BYTE      IP
      000000C0H.2 SFRSYM    DATA     BIT       ARBLOST
      000000DDH   SFRSYM    DATA     BYTE      PCA0CPM3
      000000FDH   SFRSYM    DATA     BYTE      PCA0CPL4
      000000DEH   SFRSYM    DATA     BYTE      PCA0CPM4
      000000C0H   SFRSYM    DATA     BIT       SI
      000000D0H.7 SFRSYM    DATA     BIT       CY
      000000E1H   SFRSYM    DATA     BYTE      XBR0
      000000C1H   SFRSYM    DATA     BYTE      SMB0CF
      000000E2H   SFRSYM    DATA     BYTE      XBR1
      000000AFH   SFRSYM    DATA     BYTE      PFE0CN
      000000AAH   SFRSYM    DATA     BYTE      EMI0CN
      000000E3H   SFRSYM    DATA     BYTE      XBR2
      000000D1H   SFRSYM    DATA     BYTE      REF0CN
      000000C9H   SFRSYM    DATA     BYTE      REG0CN
      000000E8H.5 SFRSYM    DATA     BIT       AD0INT
      00000081H   SFRSYM    DATA     BYTE      SP
LX51 LINKER/LOCATER V4.09                                                             09/01/2010  15:06:34  PAGE 39


      00000084H   SFRSYM    DATA     BYTE      EMI0TC
      000000D0H.2 SFRSYM    DATA     BIT       OV
      000000C0H   SFRSYM    DATA     BYTE      SMB0CN
      000000F8H.5 SFRSYM    DATA     BIT       MODF
      000000ACH   SFRSYM    DATA     BYTE      SBCON1
      00000098H.7 SFRSYM    DATA     BIT       S0MODE
      000000FFH   SFRSYM    DATA     BYTE      VDM0CN
      000000F1H   SFRSYM    DATA     BYTE      P0MDIN
      0000009DH   SFRSYM    DATA     BYTE      CPT0MD
      0000009BH   SFRSYM    DATA     BYTE      CPT0CN
      000000F2H   SFRSYM    DATA     BYTE      P1MDIN
      0000009CH   SFRSYM    DATA     BYTE      CPT1MD
      0000009AH   SFRSYM    DATA     BYTE      CPT1CN
      000000F3H   SFRSYM    DATA     BYTE      P2MDIN
      000000C8H.5 SFRSYM    DATA     BIT       TF2LEN
      000000F4H   SFRSYM    DATA     BYTE      P3MDIN
      000000B5H   SFRSYM    DATA     BYTE      SBRLH1
      000000F5H   SFRSYM    DATA     BYTE      P4MDIN
      000000F8H   SFRSYM    DATA     BYTE      SPI0CN
      00000080H   SFRSYM    DATA     BIT       P00
      00000080H.1 SFRSYM    DATA     BIT       P01
      00000090H   SFRSYM    DATA     BIT       P10
      00000087H   SFRSYM    DATA     BYTE      PCON
      00000080H.2 SFRSYM    DATA     BIT       P02
      00000090H.1 SFRSYM    DATA     BIT       P11
      000000A0H   SFRSYM    DATA     BIT       P20
      000000B4H   SFRSYM    DATA     BYTE      SBRLL1
      00000080H.3 SFRSYM    DATA     BIT       P03
      00000090H.2 SFRSYM    DATA     BIT       P12
      000000A0H.1 SFRSYM    DATA     BIT       P21
      000000B0H   SFRSYM    DATA     BIT       P30
      000000F8H.7 SFRSYM    DATA     BIT       SPIF
      00000080H.4 SFRSYM    DATA     BIT       P04
      00000090H.3 SFRSYM    DATA     BIT       P13
      000000A0H.2 SFRSYM    DATA     BIT       P22
      000000B0H.1 SFRSYM    DATA     BIT       P31
      00000080H.5 SFRSYM    DATA     BIT       P05
      00000090H.4 SFRSYM    DATA     BIT       P14
      000000A0H.3 SFRSYM    DATA     BIT       P23
      000000B0H.2 SFRSYM    DATA     BIT       P32
      00000089H   SFRSYM    DATA     BYTE      TMOD
      00000088H   SFRSYM    DATA     BYTE      TCON
      00000080H.6 SFRSYM    DATA     BIT       P06
      00000090H.5 SFRSYM    DATA     BIT       P15
      000000A0H.4 SFRSYM    DATA     BIT       P24
      000000B0H.3 SFRSYM    DATA     BIT       P33
      000000F8H.6 SFRSYM    DATA     BIT       WCOL
      00000080H.7 SFRSYM    DATA     BIT       P07
      00000090H.6 SFRSYM    DATA     BIT       P16
      000000A0H.5 SFRSYM    DATA     BIT       P25
      000000B0H.4 SFRSYM    DATA     BIT       P34
      000000F8H.2 SFRSYM    DATA     BIT       NSSMD0
      00000090H.7 SFRSYM    DATA     BIT       P17
      000000A0H.6 SFRSYM    DATA     BIT       P26
      000000B0H.5 SFRSYM    DATA     BIT       P35
      000000F8H.3 SFRSYM    DATA     BIT       NSSMD1
      000000C8H   SFRSYM    DATA     BYTE      TMR2CN
      000000A0H.7 SFRSYM    DATA     BIT       P27
      000000B0H.6 SFRSYM    DATA     BIT       P36
      00000091H   SFRSYM    DATA     BYTE      TMR3CN
      000000D4H   SFRSYM    DATA     BYTE      P0SKIP
      000000B0H.7 SFRSYM    DATA     BIT       P37
      000000C8H   SFRSYM    DATA     BIT       T2XCLK
      000000D5H   SFRSYM    DATA     BYTE      P1SKIP
      000000D6H   SFRSYM    DATA     BYTE      P2SKIP
LX51 LINKER/LOCATER V4.09                                                             09/01/2010  15:06:34  PAGE 40


      000000DFH   SFRSYM    DATA     BYTE      P3SKIP
      00000088H.1 SFRSYM    DATA     BIT       IE0
      0000009FH   SFRSYM    DATA     BYTE      CPT0MX
      00000088H.3 SFRSYM    DATA     BIT       IE1
      000000B3H   SFRSYM    DATA     BYTE      OSCICL
      0000009EH   SFRSYM    DATA     BYTE      CPT1MX
      000000A9H   SFRSYM    DATA     BYTE      CLKSEL
      000000B2H   SFRSYM    DATA     BYTE      OSCICN
      000000F0H   SFRSYM    DATA     BYTE      B
      000000BEH   SFRSYM    DATA     BYTE      ADC0H
      00000086H   SFRSYM    DATA     BYTE      OSCLCN
      000000BDH   SFRSYM    DATA     BYTE      ADC0L
      000000E0H   SFRSYM    DATA     BYTE      ACC
      000000A8H.4 SFRSYM    DATA     BIT       ES0
      000000A8H.1 SFRSYM    DATA     BIT       ET0
      000000E8H.7 SFRSYM    DATA     BIT       AD0EN
      00000088H.5 SFRSYM    DATA     BIT       TF0
      000000A8H.3 SFRSYM    DATA     BIT       ET1
      000000B9H   SFRSYM    DATA     BYTE      CLKMUL
      00000088H.7 SFRSYM    DATA     BIT       TF1
      00000098H   SFRSYM    DATA     BIT       RI0
      000000A8H.5 SFRSYM    DATA     BIT       ET2
      0000008CH   SFRSYM    DATA     BYTE      TH0
      00000088H   SFRSYM    DATA     BIT       IT0
      00000098H.1 SFRSYM    DATA     BIT       TI0
      000000A8H   SFRSYM    DATA     BIT       EX0
      0000008DH   SFRSYM    DATA     BYTE      TH1
      000000FAH   SFRSYM    DATA     BYTE      PCA0H
      00000088H.2 SFRSYM    DATA     BIT       IT1
      000000A8H.2 SFRSYM    DATA     BIT       EX1
      000000C0H.7 SFRSYM    DATA     BIT       MASTER
      000000C0H.1 SFRSYM    DATA     BIT       ACK
      0000008AH   SFRSYM    DATA     BYTE      TL0
      000000B1H   SFRSYM    DATA     BYTE      OSCXCN
      0000008BH   SFRSYM    DATA     BYTE      TL1
      000000F9H   SFRSYM    DATA     BYTE      PCA0L
      000000B8H.4 SFRSYM    DATA     BIT       PS0
      000000C0H.6 SFRSYM    DATA     BIT       TXMODE
      000000B8H.1 SFRSYM    DATA     BIT       PT0
      000000B8H.3 SFRSYM    DATA     BIT       PT1
      000000D0H.3 SFRSYM    DATA     BIT       RS0
      00000088H.4 SFRSYM    DATA     BIT       TR0
      000000B8H.5 SFRSYM    DATA     BIT       PT2
      000000D0H.4 SFRSYM    DATA     BIT       RS1
      00000088H.6 SFRSYM    DATA     BIT       TR1
      000000E8H.6 SFRSYM    DATA     BIT       AD0TM
      000000B8H   SFRSYM    DATA     BIT       PX0
      000000C8H.2 SFRSYM    DATA     BIT       TR2
      000000B8H.2 SFRSYM    DATA     BIT       PX1
      000000D0H   SFRSYM    DATA     BIT       PARITY
      00000083H   SFRSYM    DATA     BYTE      DPH
      000000C4H   SFRSYM    DATA     BYTE      ADC0GTH
      00000082H   SFRSYM    DATA     BYTE      DPL
      00000099H   SFRSYM    DATA     BYTE      SBUF0
      000000C3H   SFRSYM    DATA     BYTE      ADC0GTL
      000000A8H.6 SFRSYM    DATA     BIT       ESPI0
      000000D3H   SFRSYM    DATA     BYTE      SBUF1
      000000C6H   SFRSYM    DATA     BYTE      ADC0LTH
      000000EFH   SFRSYM    DATA     BYTE      RSTSRC
      00000098H   SFRSYM    DATA     BYTE      SCON0
      000000E5H   SFRSYM    DATA     BYTE      SMOD1
      000000D2H   SFRSYM    DATA     BYTE      SCON1
      000000BAH   SFRSYM    DATA     BYTE      AMX0N
      000000C5H   SFRSYM    DATA     BYTE      ADC0LTL
      000000BBH   SFRSYM    DATA     BYTE      AMX0P
LX51 LINKER/LOCATER V4.09                                                             09/01/2010  15:06:34  PAGE 41


      000000C0H.5 SFRSYM    DATA     BIT       STA
      000000B8H.6 SFRSYM    DATA     BIT       PSPI0
      000000C2H   SFRSYM    DATA     BYTE      SMB0DAT
      000000CDH   SFRSYM    DATA     BYTE      TMR2H
      000000A1H   SFRSYM    DATA     BYTE      SPI0CFG
      00000095H   SFRSYM    DATA     BYTE      TMR3H
      0000008EH   SFRSYM    DATA     BYTE      CKCON
      000000C8H.1 SFRSYM    DATA     BIT       T2CSS
      000000F0H   SFRSYM    DATA     BIT       B0
      000000F8H.4 SFRSYM    DATA     BIT       RXOVRN
      000000F0H.1 SFRSYM    DATA     BIT       B1
      000000CCH   SFRSYM    DATA     BYTE      TMR2L
      000000C0H.3 SFRSYM    DATA     BIT       ACKRQ
      000000F0H.2 SFRSYM    DATA     BIT       B2
      00000096H   SFRSYM    DATA     BYTE      USB0ADR
      00000094H   SFRSYM    DATA     BYTE      TMR3L
      000000F0H.3 SFRSYM    DATA     BIT       B3
      000000D0H.5 SFRSYM    DATA     BIT       F0
      000000F0H.4 SFRSYM    DATA     BIT       B4
      00000097H   SFRSYM    DATA     BYTE      USB0DAT
      000000B6H   SFRSYM    DATA     BYTE      FLSCL
      000000C0H.4 SFRSYM    DATA     BIT       STO
      000000D0H.1 SFRSYM    DATA     BIT       F1
      000000E8H   SFRSYM    DATA     BIT       AD0CM0
      000000F0H.5 SFRSYM    DATA     BIT       B5
      000000E0H   SFRSYM    DATA     BIT       ACC0
      000000E8H.1 SFRSYM    DATA     BIT       AD0CM1
      000000F0H.6 SFRSYM    DATA     BIT       B6
      000000A3H   SFRSYM    DATA     BYTE      SPI0DAT
      000000E0H.1 SFRSYM    DATA     BIT       ACC1
      000000E8H.2 SFRSYM    DATA     BIT       AD0CM2
      000000F0H.7 SFRSYM    DATA     BIT       B7
      000000E0H.2 SFRSYM    DATA     BIT       ACC2
      000000E8H.3 SFRSYM    DATA     BIT       AD0WINT
      000000E0H.3 SFRSYM    DATA     BIT       ACC3
      000000E8H.4 SFRSYM    DATA     BIT       AD0BUSY
      000000D0H   SFRSYM    DATA     BYTE      PSW
      000000E0H.4 SFRSYM    DATA     BIT       ACC4
      00000098H.2 SFRSYM    DATA     BIT       RB80
      000000D8H   SFRSYM    DATA     BIT       CCF0
      000000E0H.5 SFRSYM    DATA     BIT       ACC5
      000000B7H   SFRSYM    DATA     BYTE      FLKEY
      000000D8H.1 SFRSYM    DATA     BIT       CCF1
      000000E0H.6 SFRSYM    DATA     BIT       ACC6

      01002BB9H   BLOCK     CODE     ---       LVL=0
      ---         BLOCKEND  ---      ---       LVL=0

      010021EFH   BLOCK     CODE     ---       LVL=0
      00000006H   SYMBOL    DATA     ---       inbuf
      00000035H   SYMBOL    DATA     DWORD     ipaddr
      00000039H   SYMBOL    DATA     WORD      len
      010021EFH   BLOCK     CODE     NEAR LAB  LVL=1
      00000006H   SYMBOL    DATA     ---       ping_in
      0000003BH   SYMBOL    DATA     ---       ping_out
      0000003DH   SYMBOL    DATA     ---       outbuf
      ---         BLOCKEND  ---      ---       LVL=1
      010021EFH   LINE      CODE     ---       #26
      010021EFH   LINE      CODE     ---       #27
      010021EFH   LINE      CODE     ---       #32
      010021F6H   LINE      CODE     ---       #40
      010021FCH   LINE      CODE     ---       #42
      01002207H   LINE      CODE     ---       #44
      0100220EH   LINE      CODE     ---       #45
      01002210H   LINE      CODE     ---       #46
LX51 LINKER/LOCATER V4.09                                                             09/01/2010  15:06:34  PAGE 42


      01002214H   LINE      CODE     ---       #47
      01002224H   LINE      CODE     ---       #48
      01002234H   LINE      CODE     ---       #50
      01002261H   LINE      CODE     ---       #54
      0100227BH   LINE      CODE     ---       #57
      ---         BLOCKEND  ---      ---       LVL=0

      010023DEH   BLOCK     CODE     ---       LVL=0
      00000002H   SYMBOL    DATA     ---       inbuf
      00000034H   SYMBOL    DATA     DWORD     ipaddr
      010023E2H   BLOCK     CODE     NEAR LAB  LVL=1
      00000038H   SYMBOL    DATA     ---       outbuf
      0000003AH   SYMBOL    DATA     ---       icmp
      ---         BLOCKEND  ---      ---       LVL=1
      010023DEH   LINE      CODE     ---       #71
      010023E2H   LINE      CODE     ---       #72
      010023E2H   LINE      CODE     ---       #83
      010023E8H   LINE      CODE     ---       #85
      010023F3H   LINE      CODE     ---       #88
      010023FBH   LINE      CODE     ---       #89
      010023FDH   LINE      CODE     ---       #90
      01002409H   LINE      CODE     ---       #93
      0100241BH   LINE      CODE     ---       #97
      0100243AH   LINE      CODE     ---       #101
      0100245BH   LINE      CODE     ---       #104
      ---         BLOCKEND  ---      ---       LVL=0

      010027DDH   BLOCK     CODE     ---       LVL=0
      0000002CH   SYMBOL    DATA     ---       inbuf
      0000002EH   SYMBOL    DATA     WORD      len
      010027E5H   BLOCK     CODE     NEAR LAB  LVL=1
      00000030H   SYMBOL    DATA     ---       ip
      0000007AH   SYMBOL    IDATA    BYTE      msg_type
      0000007BH   SYMBOL    IDATA    WORD      temp
      ---         BLOCKEND  ---      ---       LVL=1
      010027DDH   LINE      CODE     ---       #114
      010027E5H   LINE      CODE     ---       #115
      010027E5H   LINE      CODE     ---       #121
      010027F4H   LINE      CODE     ---       #126
      01002806H   LINE      CODE     ---       #128
      0100280CH   LINE      CODE     ---       #129
      0100280CH   LINE      CODE     ---       #131
      0100280CH   LINE      CODE     ---       #134
      0100281BH   LINE      CODE     ---       #135
      0100281FH   LINE      CODE     ---       #136
      0100281FH   LINE      CODE     ---       #137
      0100281FH   LINE      CODE     ---       #139
      0100281FH   LINE      CODE     ---       #141
      0100281FH   LINE      CODE     ---       #142
      01002840H   LINE      CODE     ---       #143
      01002840H   LINE      CODE     ---       #145
      01002840H   LINE      CODE     ---       #147
      01002840H   LINE      CODE     ---       #148
      01002840H   LINE      CODE     ---       #149
      ---         BLOCKEND  ---      ---       LVL=0

      ---         MODULE    ---      ---       IP
      02000175H   PUBLIC    XDATA    ---       wait
      01001620H   PUBLIC    CODE     ---       _ip_rcve
      00000047H   PUBLIC    DATA     BYTE      ?_ip_send?BYTE
      01001950H   PUBLIC    CODE     ---       _ip_send
      00000098H.3 SFRSYM    DATA     BIT       TB80
      000000D8H.2 SFRSYM    DATA     BIT       CCF2
      000000E0H.7 SFRSYM    DATA     BIT       ACC7
      000000A2H   SFRSYM    DATA     BYTE      SPI0CKR
LX51 LINKER/LOCATER V4.09                                                             09/01/2010  15:06:34  PAGE 43


      000000D8H.3 SFRSYM    DATA     BIT       CCF3
      00000080H   SFRSYM    DATA     BYTE      P0
      000000D8H.4 SFRSYM    DATA     BIT       CCF4
      000000F8H   SFRSYM    DATA     BIT       SPIEN
      00000090H   SFRSYM    DATA     BYTE      P1
      000000A0H   SFRSYM    DATA     BYTE      P2
      000000B0H   SFRSYM    DATA     BYTE      P3
      000000BCH   SFRSYM    DATA     BYTE      ADC0CF
      000000D0H.6 SFRSYM    DATA     BIT       AC
      000000C7H   SFRSYM    DATA     BYTE      P4
      000000E6H   SFRSYM    DATA     BYTE      EIE1
      00000098H.5 SFRSYM    DATA     BIT       MCE0
      000000A8H.7 SFRSYM    DATA     BIT       EA
      000000D7H   SFRSYM    DATA     BYTE      USB0XCN
      000000E7H   SFRSYM    DATA     BYTE      EIE2
      0000008FH   SFRSYM    DATA     BYTE      PSCTL
      000000D8H.7 SFRSYM    DATA     BIT       CF
      000000E4H   SFRSYM    DATA     BYTE      IT01CF
      000000E8H   SFRSYM    DATA     BYTE      ADC0CN
      000000A4H   SFRSYM    DATA     BYTE      P0MDOUT
      000000A5H   SFRSYM    DATA     BYTE      P1MDOUT
      000000CBH   SFRSYM    DATA     BYTE      TMR2RLH
      000000A6H   SFRSYM    DATA     BYTE      P2MDOUT
      000000A8H   SFRSYM    DATA     BYTE      IE
      000000C8H.4 SFRSYM    DATA     BIT       T2CE
      00000093H   SFRSYM    DATA     BYTE      TMR3RLH
      000000A7H   SFRSYM    DATA     BYTE      P3MDOUT
      000000AEH   SFRSYM    DATA     BYTE      P4MDOUT
      000000F6H   SFRSYM    DATA     BYTE      EIP1
      000000F8H.1 SFRSYM    DATA     BIT       TXBMT
      000000F7H   SFRSYM    DATA     BYTE      EIP2
      000000CAH   SFRSYM    DATA     BYTE      TMR2RLL
      000000FCH   SFRSYM    DATA     BYTE      PCA0CPH0
      00000092H   SFRSYM    DATA     BYTE      TMR3RLL
      000000EAH   SFRSYM    DATA     BYTE      PCA0CPH1
      000000ECH   SFRSYM    DATA     BYTE      PCA0CPH2
      000000C8H.7 SFRSYM    DATA     BIT       TF2H
      000000C8H.3 SFRSYM    DATA     BIT       T2SPLIT
      000000D8H.6 SFRSYM    DATA     BIT       CR
      000000EEH   SFRSYM    DATA     BYTE      PCA0CPH3
      00000098H.4 SFRSYM    DATA     BIT       REN0
      000000FBH   SFRSYM    DATA     BYTE      PCA0CPL0
      000000FEH   SFRSYM    DATA     BYTE      PCA0CPH4
      00000085H   SFRSYM    DATA     BYTE      EMI0CF
      000000D9H   SFRSYM    DATA     BYTE      PCA0MD
      000000DAH   SFRSYM    DATA     BYTE      PCA0CPM0
      000000E9H   SFRSYM    DATA     BYTE      PCA0CPL1
      000000D8H   SFRSYM    DATA     BYTE      PCA0CN
      000000DBH   SFRSYM    DATA     BYTE      PCA0CPM1
      000000EBH   SFRSYM    DATA     BYTE      PCA0CPL2
      000000C8H.6 SFRSYM    DATA     BIT       TF2L
      000000DCH   SFRSYM    DATA     BYTE      PCA0CPM2
      000000EDH   SFRSYM    DATA     BYTE      PCA0CPL3
      000000B8H   SFRSYM    DATA     BYTE      IP
      000000C0H.2 SFRSYM    DATA     BIT       ARBLOST
      000000DDH   SFRSYM    DATA     BYTE      PCA0CPM3
      000000FDH   SFRSYM    DATA     BYTE      PCA0CPL4
      000000DEH   SFRSYM    DATA     BYTE      PCA0CPM4
      000000C0H   SFRSYM    DATA     BIT       SI
      000000D0H.7 SFRSYM    DATA     BIT       CY
      000000E1H   SFRSYM    DATA     BYTE      XBR0
      000000C1H   SFRSYM    DATA     BYTE      SMB0CF
      000000E2H   SFRSYM    DATA     BYTE      XBR1
      000000AFH   SFRSYM    DATA     BYTE      PFE0CN
      000000AAH   SFRSYM    DATA     BYTE      EMI0CN
LX51 LINKER/LOCATER V4.09                                                             09/01/2010  15:06:34  PAGE 44


      000000E3H   SFRSYM    DATA     BYTE      XBR2
      000000D1H   SFRSYM    DATA     BYTE      REF0CN
      000000C9H   SFRSYM    DATA     BYTE      REG0CN
      000000E8H.5 SFRSYM    DATA     BIT       AD0INT
      00000081H   SFRSYM    DATA     BYTE      SP
      00000084H   SFRSYM    DATA     BYTE      EMI0TC
      000000D0H.2 SFRSYM    DATA     BIT       OV
      000000C0H   SFRSYM    DATA     BYTE      SMB0CN
      000000F8H.5 SFRSYM    DATA     BIT       MODF
      000000ACH   SFRSYM    DATA     BYTE      SBCON1
      00000098H.7 SFRSYM    DATA     BIT       S0MODE
      000000FFH   SFRSYM    DATA     BYTE      VDM0CN
      000000F1H   SFRSYM    DATA     BYTE      P0MDIN
      0000009DH   SFRSYM    DATA     BYTE      CPT0MD
      0000009BH   SFRSYM    DATA     BYTE      CPT0CN
      000000F2H   SFRSYM    DATA     BYTE      P1MDIN
      0000009CH   SFRSYM    DATA     BYTE      CPT1MD
      0000009AH   SFRSYM    DATA     BYTE      CPT1CN
      000000F3H   SFRSYM    DATA     BYTE      P2MDIN
      000000C8H.5 SFRSYM    DATA     BIT       TF2LEN
      000000F4H   SFRSYM    DATA     BYTE      P3MDIN
      000000B5H   SFRSYM    DATA     BYTE      SBRLH1
      000000F5H   SFRSYM    DATA     BYTE      P4MDIN
      000000F8H   SFRSYM    DATA     BYTE      SPI0CN
      00000080H   SFRSYM    DATA     BIT       P00
      00000080H.1 SFRSYM    DATA     BIT       P01
      00000090H   SFRSYM    DATA     BIT       P10
      00000087H   SFRSYM    DATA     BYTE      PCON
      00000080H.2 SFRSYM    DATA     BIT       P02
      00000090H.1 SFRSYM    DATA     BIT       P11
      000000A0H   SFRSYM    DATA     BIT       P20
      000000B4H   SFRSYM    DATA     BYTE      SBRLL1
      00000080H.3 SFRSYM    DATA     BIT       P03
      00000090H.2 SFRSYM    DATA     BIT       P12
      000000A0H.1 SFRSYM    DATA     BIT       P21
      000000B0H   SFRSYM    DATA     BIT       P30
      000000F8H.7 SFRSYM    DATA     BIT       SPIF
      00000080H.4 SFRSYM    DATA     BIT       P04
      00000090H.3 SFRSYM    DATA     BIT       P13
      000000A0H.2 SFRSYM    DATA     BIT       P22
      000000B0H.1 SFRSYM    DATA     BIT       P31
      00000080H.5 SFRSYM    DATA     BIT       P05
      00000090H.4 SFRSYM    DATA     BIT       P14
      000000A0H.3 SFRSYM    DATA     BIT       P23
      000000B0H.2 SFRSYM    DATA     BIT       P32
      00000089H   SFRSYM    DATA     BYTE      TMOD
      00000088H   SFRSYM    DATA     BYTE      TCON
      00000080H.6 SFRSYM    DATA     BIT       P06
      00000090H.5 SFRSYM    DATA     BIT       P15
      000000A0H.4 SFRSYM    DATA     BIT       P24
      000000B0H.3 SFRSYM    DATA     BIT       P33
      000000F8H.6 SFRSYM    DATA     BIT       WCOL
      00000080H.7 SFRSYM    DATA     BIT       P07
      00000090H.6 SFRSYM    DATA     BIT       P16
      000000A0H.5 SFRSYM    DATA     BIT       P25
      000000B0H.4 SFRSYM    DATA     BIT       P34
      000000F8H.2 SFRSYM    DATA     BIT       NSSMD0
      00000090H.7 SFRSYM    DATA     BIT       P17
      000000A0H.6 SFRSYM    DATA     BIT       P26
      000000B0H.5 SFRSYM    DATA     BIT       P35
      000000F8H.3 SFRSYM    DATA     BIT       NSSMD1
      000000C8H   SFRSYM    DATA     BYTE      TMR2CN
      000000A0H.7 SFRSYM    DATA     BIT       P27
      000000B0H.6 SFRSYM    DATA     BIT       P36
      00000091H   SFRSYM    DATA     BYTE      TMR3CN
LX51 LINKER/LOCATER V4.09                                                             09/01/2010  15:06:34  PAGE 45


      000000D4H   SFRSYM    DATA     BYTE      P0SKIP
      000000B0H.7 SFRSYM    DATA     BIT       P37
      000000C8H   SFRSYM    DATA     BIT       T2XCLK
      000000D5H   SFRSYM    DATA     BYTE      P1SKIP
      000000D6H   SFRSYM    DATA     BYTE      P2SKIP
      000000DFH   SFRSYM    DATA     BYTE      P3SKIP
      00000088H.1 SFRSYM    DATA     BIT       IE0
      0000009FH   SFRSYM    DATA     BYTE      CPT0MX
      00000088H.3 SFRSYM    DATA     BIT       IE1
      000000B3H   SFRSYM    DATA     BYTE      OSCICL
      0000009EH   SFRSYM    DATA     BYTE      CPT1MX
      000000A9H   SFRSYM    DATA     BYTE      CLKSEL
      000000B2H   SFRSYM    DATA     BYTE      OSCICN
      000000F0H   SFRSYM    DATA     BYTE      B
      000000BEH   SFRSYM    DATA     BYTE      ADC0H
      00000086H   SFRSYM    DATA     BYTE      OSCLCN
      000000BDH   SFRSYM    DATA     BYTE      ADC0L
      000000E0H   SFRSYM    DATA     BYTE      ACC
      000000A8H.4 SFRSYM    DATA     BIT       ES0
      000000A8H.1 SFRSYM    DATA     BIT       ET0
      000000E8H.7 SFRSYM    DATA     BIT       AD0EN
      00000088H.5 SFRSYM    DATA     BIT       TF0
      000000A8H.3 SFRSYM    DATA     BIT       ET1
      000000B9H   SFRSYM    DATA     BYTE      CLKMUL
      00000088H.7 SFRSYM    DATA     BIT       TF1
      00000098H   SFRSYM    DATA     BIT       RI0
      000000A8H.5 SFRSYM    DATA     BIT       ET2
      0000008CH   SFRSYM    DATA     BYTE      TH0
      00000088H   SFRSYM    DATA     BIT       IT0
      00000098H.1 SFRSYM    DATA     BIT       TI0
      000000A8H   SFRSYM    DATA     BIT       EX0
      0000008DH   SFRSYM    DATA     BYTE      TH1
      000000FAH   SFRSYM    DATA     BYTE      PCA0H
      00000088H.2 SFRSYM    DATA     BIT       IT1
      000000A8H.2 SFRSYM    DATA     BIT       EX1
      000000C0H.7 SFRSYM    DATA     BIT       MASTER
      000000C0H.1 SFRSYM    DATA     BIT       ACK
      0000008AH   SFRSYM    DATA     BYTE      TL0
      000000B1H   SFRSYM    DATA     BYTE      OSCXCN
      0000008BH   SFRSYM    DATA     BYTE      TL1
      000000F9H   SFRSYM    DATA     BYTE      PCA0L
      000000B8H.4 SFRSYM    DATA     BIT       PS0
      000000C0H.6 SFRSYM    DATA     BIT       TXMODE
      000000B8H.1 SFRSYM    DATA     BIT       PT0
      000000B8H.3 SFRSYM    DATA     BIT       PT1
      000000D0H.3 SFRSYM    DATA     BIT       RS0
      00000088H.4 SFRSYM    DATA     BIT       TR0
      000000B8H.5 SFRSYM    DATA     BIT       PT2
      000000D0H.4 SFRSYM    DATA     BIT       RS1
      00000088H.6 SFRSYM    DATA     BIT       TR1
      000000E8H.6 SFRSYM    DATA     BIT       AD0TM
      000000B8H   SFRSYM    DATA     BIT       PX0
      000000C8H.2 SFRSYM    DATA     BIT       TR2
      000000B8H.2 SFRSYM    DATA     BIT       PX1
      000000D0H   SFRSYM    DATA     BIT       PARITY
      00000083H   SFRSYM    DATA     BYTE      DPH
      000000C4H   SFRSYM    DATA     BYTE      ADC0GTH
      00000082H   SFRSYM    DATA     BYTE      DPL
      00000099H   SFRSYM    DATA     BYTE      SBUF0
      000000C3H   SFRSYM    DATA     BYTE      ADC0GTL
      000000A8H.6 SFRSYM    DATA     BIT       ESPI0
      000000D3H   SFRSYM    DATA     BYTE      SBUF1
      000000C6H   SFRSYM    DATA     BYTE      ADC0LTH
      000000EFH   SFRSYM    DATA     BYTE      RSTSRC
      00000098H   SFRSYM    DATA     BYTE      SCON0
LX51 LINKER/LOCATER V4.09                                                             09/01/2010  15:06:34  PAGE 46


      000000E5H   SFRSYM    DATA     BYTE      SMOD1
      000000D2H   SFRSYM    DATA     BYTE      SCON1
      000000BAH   SFRSYM    DATA     BYTE      AMX0N
      000000C5H   SFRSYM    DATA     BYTE      ADC0LTL
      000000BBH   SFRSYM    DATA     BYTE      AMX0P
      000000C0H.5 SFRSYM    DATA     BIT       STA
      000000B8H.6 SFRSYM    DATA     BIT       PSPI0
      000000C2H   SFRSYM    DATA     BYTE      SMB0DAT
      000000CDH   SFRSYM    DATA     BYTE      TMR2H
      000000A1H   SFRSYM    DATA     BYTE      SPI0CFG
      00000095H   SFRSYM    DATA     BYTE      TMR3H
      0000008EH   SFRSYM    DATA     BYTE      CKCON
      000000C8H.1 SFRSYM    DATA     BIT       T2CSS
      000000F0H   SFRSYM    DATA     BIT       B0
      000000F8H.4 SFRSYM    DATA     BIT       RXOVRN
      000000F0H.1 SFRSYM    DATA     BIT       B1
      000000CCH   SFRSYM    DATA     BYTE      TMR2L
      000000C0H.3 SFRSYM    DATA     BIT       ACKRQ
      000000F0H.2 SFRSYM    DATA     BIT       B2
      00000096H   SFRSYM    DATA     BYTE      USB0ADR
      00000094H   SFRSYM    DATA     BYTE      TMR3L
      000000F0H.3 SFRSYM    DATA     BIT       B3
      000000D0H.5 SFRSYM    DATA     BIT       F0
      000000F0H.4 SFRSYM    DATA     BIT       B4
      00000097H   SFRSYM    DATA     BYTE      USB0DAT
      000000B6H   SFRSYM    DATA     BYTE      FLSCL
      000000C0H.4 SFRSYM    DATA     BIT       STO
      000000D0H.1 SFRSYM    DATA     BIT       F1
      000000E8H   SFRSYM    DATA     BIT       AD0CM0
      000000F0H.5 SFRSYM    DATA     BIT       B5
      000000E0H   SFRSYM    DATA     BIT       ACC0
      000000E8H.1 SFRSYM    DATA     BIT       AD0CM1
      000000F0H.6 SFRSYM    DATA     BIT       B6
      000000A3H   SFRSYM    DATA     BYTE      SPI0DAT
      000000E0H.1 SFRSYM    DATA     BIT       ACC1
      000000E8H.2 SFRSYM    DATA     BIT       AD0CM2
      000000F0H.7 SFRSYM    DATA     BIT       B7
      000000E0H.2 SFRSYM    DATA     BIT       ACC2
      000000E8H.3 SFRSYM    DATA     BIT       AD0WINT
      000000E0H.3 SFRSYM    DATA     BIT       ACC3
      000000E8H.4 SFRSYM    DATA     BIT       AD0BUSY
      000000D0H   SFRSYM    DATA     BYTE      PSW
      000000E0H.4 SFRSYM    DATA     BIT       ACC4
      00000098H.2 SFRSYM    DATA     BIT       RB80
      000000D8H   SFRSYM    DATA     BIT       CCF0
      000000E0H.5 SFRSYM    DATA     BIT       ACC5
      000000B7H   SFRSYM    DATA     BYTE      FLKEY
      000000D8H.1 SFRSYM    DATA     BIT       CCF1
      000000E0H.6 SFRSYM    DATA     BIT       ACC6

      01002B65H   BLOCK     CODE     ---       LVL=0
      ---         BLOCKEND  ---      ---       LVL=0

      01001950H   BLOCK     CODE     ---       LVL=0
      00000047H   SYMBOL    DATA     ---       outbuf
      00000049H   SYMBOL    DATA     DWORD     ipaddr
      0000004DH   SYMBOL    DATA     BYTE      proto_id
      0000004EH   SYMBOL    DATA     WORD      len
      01001954H   BLOCK     CODE     NEAR LAB  LVL=1
      00000050H   SYMBOL    DATA     ---       ip
      00000006H   SYMBOL    DATA     ---       hwaddr
      00000074H   SYMBOL    DATA     WORD      ip_ident
      ---         BLOCKEND  ---      ---       LVL=1
      01001950H   LINE      CODE     ---       #30
      01001954H   LINE      CODE     ---       #31
LX51 LINKER/LOCATER V4.09                                                             09/01/2010  15:06:34  PAGE 47


      01001954H   LINE      CODE     ---       #36
      0100195DH   LINE      CODE     ---       #37
      01001965H   LINE      CODE     ---       #38
      01001968H   LINE      CODE     ---       #39
      0100197CH   LINE      CODE     ---       #40
      01001994H   LINE      CODE     ---       #41
      0100199FH   LINE      CODE     ---       #42
      010019A9H   LINE      CODE     ---       #43
      010019B3H   LINE      CODE     ---       #44
      010019BEH   LINE      CODE     ---       #45
      010019CEH   LINE      CODE     ---       #48
      010019DCH   LINE      CODE     ---       #52
      010019FCH   LINE      CODE     ---       #55
      01001A05H   LINE      CODE     ---       #59
      01001A09H   LINE      CODE     ---       #60
      01001A09H   LINE      CODE     ---       #63
      01001A11H   LINE      CODE     ---       #64
      01001A1DH   LINE      CODE     ---       #65
      01001A23H   LINE      CODE     ---       #66
      01001A2BH   LINE      CODE     ---       #67
      01001A30H   LINE      CODE     ---       #69
      01001A30H   LINE      CODE     ---       #71
      01001A4EH   LINE      CODE     ---       #72
      ---         BLOCKEND  ---      ---       LVL=0

      01001620H   BLOCK     CODE     ---       LVL=0
      00000028H   SYMBOL    DATA     ---       inbuf
      01001624H   BLOCK     CODE     NEAR LAB  LVL=1
      0000002AH   SYMBOL    DATA     ---       ip
      00000076H   SYMBOL    IDATA    WORD      header_len
      00000078H   SYMBOL    IDATA    WORD      payload_len
      ---         BLOCKEND  ---      ---       LVL=1
      01001620H   LINE      CODE     ---       #80
      01001624H   LINE      CODE     ---       #81
      01001624H   LINE      CODE     ---       #85
      0100162DH   LINE      CODE     ---       #88
      0100164CH   LINE      CODE     ---       #91
      01001662H   LINE      CODE     ---       #92
      01001674H   LINE      CODE     ---       #93
      0100168BH   LINE      CODE     ---       #94
      0100168BH   LINE      CODE     ---       #96
      0100168BH   LINE      CODE     ---       #99
      01001699H   LINE      CODE     ---       #100
      01001699H   LINE      CODE     ---       #102
      01001699H   LINE      CODE     ---       #106
      010016B0H   LINE      CODE     ---       #107
      010016B0H   LINE      CODE     ---       #109
      010016B0H   LINE      CODE     ---       #116
      010016BFH   LINE      CODE     ---       #117
      010016BFH   LINE      CODE     ---       #120
      010016EFH   LINE      CODE     ---       #123
      010016F6H   LINE      CODE     ---       #124
      010016FCH   LINE      CODE     ---       #125
      0100170BH   LINE      CODE     ---       #126
      0100170BH   LINE      CODE     ---       #133
      01001723H   LINE      CODE     ---       #134
      01001723H   LINE      CODE     ---       #135
      01001723H   LINE      CODE     ---       #136
      01001729H   LINE      CODE     ---       #137
      01001729H   LINE      CODE     ---       #139
      01001729H   LINE      CODE     ---       #142
      01001729H   LINE      CODE     ---       #144
      01001729H   LINE      CODE     ---       #145
      0100172FH   LINE      CODE     ---       #146
      0100172FH   LINE      CODE     ---       #148
LX51 LINKER/LOCATER V4.09                                                             09/01/2010  15:06:34  PAGE 48


      0100172FH   LINE      CODE     ---       #149
      01001735H   LINE      CODE     ---       #150
      01001735H   LINE      CODE     ---       #152
      01001735H   LINE      CODE     ---       #154
      01001735H   LINE      CODE     ---       #155
      01001735H   LINE      CODE     ---       #156
      ---         BLOCKEND  ---      ---       LVL=0

      ---         MODULE    ---      ---       MAIN
      0200016FH   PUBLIC    XDATA    ---       MYMAC
      0000001AH   PUBLIC    DATA     BYTE      TimeSecond
      000000B0H   PUBLIC    IDATA    BYTE      rcve_buf_allocated
      000000AEH   PUBLIC    IDATA    WORD      air_temperature
      00000019H   PUBLIC    DATA     BYTE      Count10ms
      020009C4H   PUBLIC    XDATA    ---       outbuf1
      020003E8H   PUBLIC    XDATA    ---       inbuf1
      0200015BH   PUBLIC    XDATA    ---       text
      02000155H   PUBLIC    XDATA    ---       my_hwaddr
      00000017H   PUBLIC    DATA     WORD      event_word
      00000015H   PUBLIC    DATA     WORD      Count1msInc
      00000014H   PUBLIC    DATA     BYTE      Count1s
      00000013H   PUBLIC    DATA     BYTE      Count1ms
      000000ADH   PUBLIC    IDATA    BYTE      debug
      00000012H   PUBLIC    DATA     BYTE      TimeMinute
      01002C9DH   PUBLIC    CODE     DWORD     gateway_ipaddr
      01002C99H   PUBLIC    CODE     DWORD     my_subnet
      01002C95H   PUBLIC    CODE     DWORD     my_ipaddr
      01002C8FH   PUBLIC    CODE     ---       broadcast_hwaddr
      01002297H   PUBLIC    CODE     ---       rcve_frame
      01002591H   PUBLIC    CODE     ---       _CP220x_Send
      00000063H   PUBLIC    DATA     BYTE      ?_eth_send?BYTE
      0100294CH   PUBLIC    CODE     ---       _eth_send
      01002A1BH   PUBLIC    CODE     ---       _eth_rcve
      01002A95H   PUBLIC    CODE     ---       _MAC_SetAddress
      01002C09H   PUBLIC    CODE     ---       _MAC_Write
      01001E7EH   PUBLIC    CODE     ---       MAC_Init
      01002841H   PUBLIC    CODE     ---       PHY_Init
      0100000AH   PUBLIC    CODE     ---       CP220x_RST_High
      01000009H   PUBLIC    CODE     ---       CP220x_RST_Low
      01001A4FH   PUBLIC    CODE     ---       main
      00000020H.0 PUBLIC    BIT      BIT       ?LightONOFF?BIT
      01000026H   PUBLIC    CODE     ---       LightONOFF
      01002D09H   PUBLIC    CODE     ---       _Delay1ms
      01002903H   PUBLIC    CODE     ---       Timer0_ISR
      01002BE0H   PUBLIC    CODE     ---       serial
      01002C6FH   PUBLIC    CODE     ---       _SendString
      01002CB7H   PUBLIC    CODE     ---       UART0_Init
      01002ACEH   PUBLIC    CODE     ---       SYSCLK_Init
      01002C55H   PUBLIC    CODE     ---       Timer0_Init
      01002B05H   PUBLIC    CODE     ---       PORT_Init
      01002C3AH   PUBLIC    CODE     ---       init_main
      01002477H   PUBLIC    CODE     ---       _int2str
      00000098H.3 SFRSYM    DATA     BIT       TB80
      000000D8H.2 SFRSYM    DATA     BIT       CCF2
      000000E0H.7 SFRSYM    DATA     BIT       ACC7
      000000A2H   SFRSYM    DATA     BYTE      SPI0CKR
      000000D8H.3 SFRSYM    DATA     BIT       CCF3
      00000080H   SFRSYM    DATA     BYTE      P0
      000000D8H.4 SFRSYM    DATA     BIT       CCF4
      000000F8H   SFRSYM    DATA     BIT       SPIEN
      00000090H   SFRSYM    DATA     BYTE      P1
      000000A0H   SFRSYM    DATA     BYTE      P2
      000000B0H   SFRSYM    DATA     BYTE      P3
      000000BCH   SFRSYM    DATA     BYTE      ADC0CF
      000000D0H.6 SFRSYM    DATA     BIT       AC
LX51 LINKER/LOCATER V4.09                                                             09/01/2010  15:06:34  PAGE 49


      000000C7H   SFRSYM    DATA     BYTE      P4
      000000E6H   SFRSYM    DATA     BYTE      EIE1
      00000098H.5 SFRSYM    DATA     BIT       MCE0
      000000A8H.7 SFRSYM    DATA     BIT       EA
      000000D7H   SFRSYM    DATA     BYTE      USB0XCN
      000000E7H   SFRSYM    DATA     BYTE      EIE2
      0000008FH   SFRSYM    DATA     BYTE      PSCTL
      000000D8H.7 SFRSYM    DATA     BIT       CF
      000000E4H   SFRSYM    DATA     BYTE      IT01CF
      000000E8H   SFRSYM    DATA     BYTE      ADC0CN
      000000A4H   SFRSYM    DATA     BYTE      P0MDOUT
      000000A5H   SFRSYM    DATA     BYTE      P1MDOUT
      000000CBH   SFRSYM    DATA     BYTE      TMR2RLH
      000000A6H   SFRSYM    DATA     BYTE      P2MDOUT
      000000A8H   SFRSYM    DATA     BYTE      IE
      000000C8H.4 SFRSYM    DATA     BIT       T2CE
      00000093H   SFRSYM    DATA     BYTE      TMR3RLH
      000000A7H   SFRSYM    DATA     BYTE      P3MDOUT
      000000AEH   SFRSYM    DATA     BYTE      P4MDOUT
      000000F6H   SFRSYM    DATA     BYTE      EIP1
      000000F8H.1 SFRSYM    DATA     BIT       TXBMT
      000000F7H   SFRSYM    DATA     BYTE      EIP2
      00000090H   SFRSYM    DATA     BIT       AB4_RST
      000000CAH   SFRSYM    DATA     BYTE      TMR2RLL
      000000FCH   SFRSYM    DATA     BYTE      PCA0CPH0
      00000092H   SFRSYM    DATA     BYTE      TMR3RLL
      000000EAH   SFRSYM    DATA     BYTE      PCA0CPH1
      000000ECH   SFRSYM    DATA     BYTE      PCA0CPH2
      000000C8H.7 SFRSYM    DATA     BIT       TF2H
      000000C8H.3 SFRSYM    DATA     BIT       T2SPLIT
      000000D8H.6 SFRSYM    DATA     BIT       CR
      000000EEH   SFRSYM    DATA     BYTE      PCA0CPH3
      00000098H.4 SFRSYM    DATA     BIT       REN0
      000000FBH   SFRSYM    DATA     BYTE      PCA0CPL0
      000000FEH   SFRSYM    DATA     BYTE      PCA0CPH4
      00000085H   SFRSYM    DATA     BYTE      EMI0CF
      000000D9H   SFRSYM    DATA     BYTE      PCA0MD
      000000DAH   SFRSYM    DATA     BYTE      PCA0CPM0
      000000E9H   SFRSYM    DATA     BYTE      PCA0CPL1
      000000D8H   SFRSYM    DATA     BYTE      PCA0CN
      000000DBH   SFRSYM    DATA     BYTE      PCA0CPM1
      000000EBH   SFRSYM    DATA     BYTE      PCA0CPL2
      000000C8H.6 SFRSYM    DATA     BIT       TF2L
      000000DCH   SFRSYM    DATA     BYTE      PCA0CPM2
      000000EDH   SFRSYM    DATA     BYTE      PCA0CPL3
      000000B8H   SFRSYM    DATA     BYTE      IP
      000000C0H.2 SFRSYM    DATA     BIT       ARBLOST
      000000DDH   SFRSYM    DATA     BYTE      PCA0CPM3
      000000FDH   SFRSYM    DATA     BYTE      PCA0CPL4
      000000DEH   SFRSYM    DATA     BYTE      PCA0CPM4
      000000C0H   SFRSYM    DATA     BIT       SI
      000000D0H.7 SFRSYM    DATA     BIT       CY
      000000E1H   SFRSYM    DATA     BYTE      XBR0
      000000C1H   SFRSYM    DATA     BYTE      SMB0CF
      000000E2H   SFRSYM    DATA     BYTE      XBR1
      000000AFH   SFRSYM    DATA     BYTE      PFE0CN
      000000AAH   SFRSYM    DATA     BYTE      EMI0CN
      000000E3H   SFRSYM    DATA     BYTE      XBR2
      000000D1H   SFRSYM    DATA     BYTE      REF0CN
      000000C9H   SFRSYM    DATA     BYTE      REG0CN
      000000E8H.5 SFRSYM    DATA     BIT       AD0INT
      00000081H   SFRSYM    DATA     BYTE      SP
      00000084H   SFRSYM    DATA     BYTE      EMI0TC
      000000D0H.2 SFRSYM    DATA     BIT       OV
      000000C0H   SFRSYM    DATA     BYTE      SMB0CN
LX51 LINKER/LOCATER V4.09                                                             09/01/2010  15:06:34  PAGE 50


      000000F8H.5 SFRSYM    DATA     BIT       MODF
      000000ACH   SFRSYM    DATA     BYTE      SBCON1
      00000098H.7 SFRSYM    DATA     BIT       S0MODE
      000000FFH   SFRSYM    DATA     BYTE      VDM0CN
      000000F1H   SFRSYM    DATA     BYTE      P0MDIN
      0000009DH   SFRSYM    DATA     BYTE      CPT0MD
      0000009BH   SFRSYM    DATA     BYTE      CPT0CN
      000000F2H   SFRSYM    DATA     BYTE      P1MDIN
      0000009CH   SFRSYM    DATA     BYTE      CPT1MD
      0000009AH   SFRSYM    DATA     BYTE      CPT1CN
      000000F3H   SFRSYM    DATA     BYTE      P2MDIN
      000000C8H.5 SFRSYM    DATA     BIT       TF2LEN
      000000F4H   SFRSYM    DATA     BYTE      P3MDIN
      000000B5H   SFRSYM    DATA     BYTE      SBRLH1
      000000F5H   SFRSYM    DATA     BYTE      P4MDIN
      000000F8H   SFRSYM    DATA     BYTE      SPI0CN
      00000080H   SFRSYM    DATA     BIT       P00
      00000080H.1 SFRSYM    DATA     BIT       P01
      00000090H   SFRSYM    DATA     BIT       P10
      00000087H   SFRSYM    DATA     BYTE      PCON
      00000080H.2 SFRSYM    DATA     BIT       P02
      00000090H.1 SFRSYM    DATA     BIT       P11
      000000A0H   SFRSYM    DATA     BIT       P20
      000000B4H   SFRSYM    DATA     BYTE      SBRLL1
      00000080H.3 SFRSYM    DATA     BIT       P03
      00000090H.2 SFRSYM    DATA     BIT       P12
      000000A0H.1 SFRSYM    DATA     BIT       P21
      000000B0H   SFRSYM    DATA     BIT       P30
      000000F8H.7 SFRSYM    DATA     BIT       SPIF
      00000080H.4 SFRSYM    DATA     BIT       P04
      00000090H.3 SFRSYM    DATA     BIT       P13
      000000A0H.2 SFRSYM    DATA     BIT       P22
      000000B0H.1 SFRSYM    DATA     BIT       P31
      00000080H.5 SFRSYM    DATA     BIT       P05
      00000090H.4 SFRSYM    DATA     BIT       P14
      000000A0H.3 SFRSYM    DATA     BIT       P23
      000000B0H.2 SFRSYM    DATA     BIT       P32
      00000089H   SFRSYM    DATA     BYTE      TMOD
      00000088H   SFRSYM    DATA     BYTE      TCON
      00000080H.6 SFRSYM    DATA     BIT       P06
      00000090H.5 SFRSYM    DATA     BIT       P15
      000000A0H.4 SFRSYM    DATA     BIT       P24
      000000B0H.3 SFRSYM    DATA     BIT       P33
      000000F8H.6 SFRSYM    DATA     BIT       WCOL
      00000080H.7 SFRSYM    DATA     BIT       P07
      00000090H.6 SFRSYM    DATA     BIT       P16
      000000A0H.5 SFRSYM    DATA     BIT       P25
      000000B0H.4 SFRSYM    DATA     BIT       P34
      000000F8H.2 SFRSYM    DATA     BIT       NSSMD0
      00000090H.7 SFRSYM    DATA     BIT       P17
      000000A0H.6 SFRSYM    DATA     BIT       P26
      000000B0H.5 SFRSYM    DATA     BIT       P35
      000000F8H.3 SFRSYM    DATA     BIT       NSSMD1
      000000C8H   SFRSYM    DATA     BYTE      TMR2CN
      000000A0H.7 SFRSYM    DATA     BIT       P27
      000000B0H.6 SFRSYM    DATA     BIT       P36
      00000091H   SFRSYM    DATA     BYTE      TMR3CN
      000000D4H   SFRSYM    DATA     BYTE      P0SKIP
      000000B0H.7 SFRSYM    DATA     BIT       P37
      000000C8H   SFRSYM    DATA     BIT       T2XCLK
      000000D5H   SFRSYM    DATA     BYTE      P1SKIP
      000000D6H   SFRSYM    DATA     BYTE      P2SKIP
      000000DFH   SFRSYM    DATA     BYTE      P3SKIP
      00000088H.1 SFRSYM    DATA     BIT       IE0
      0000009FH   SFRSYM    DATA     BYTE      CPT0MX
LX51 LINKER/LOCATER V4.09                                                             09/01/2010  15:06:34  PAGE 51


      00000088H.3 SFRSYM    DATA     BIT       IE1
      000000B3H   SFRSYM    DATA     BYTE      OSCICL
      0000009EH   SFRSYM    DATA     BYTE      CPT1MX
      000000A9H   SFRSYM    DATA     BYTE      CLKSEL
      000000B2H   SFRSYM    DATA     BYTE      OSCICN
      000000F0H   SFRSYM    DATA     BYTE      B
      000000BEH   SFRSYM    DATA     BYTE      ADC0H
      00000086H   SFRSYM    DATA     BYTE      OSCLCN
      000000BDH   SFRSYM    DATA     BYTE      ADC0L
      000000E0H   SFRSYM    DATA     BYTE      ACC
      000000A8H.4 SFRSYM    DATA     BIT       ES0
      000000A8H.1 SFRSYM    DATA     BIT       ET0
      000000E8H.7 SFRSYM    DATA     BIT       AD0EN
      00000088H.5 SFRSYM    DATA     BIT       TF0
      000000A8H.3 SFRSYM    DATA     BIT       ET1
      000000B9H   SFRSYM    DATA     BYTE      CLKMUL
      00000088H.7 SFRSYM    DATA     BIT       TF1
      00000098H   SFRSYM    DATA     BIT       RI0
      000000A8H.5 SFRSYM    DATA     BIT       ET2
      0000008CH   SFRSYM    DATA     BYTE      TH0
      00000088H   SFRSYM    DATA     BIT       IT0
      00000098H.1 SFRSYM    DATA     BIT       TI0
      000000A8H   SFRSYM    DATA     BIT       EX0
      0000008DH   SFRSYM    DATA     BYTE      TH1
      000000FAH   SFRSYM    DATA     BYTE      PCA0H
      00000088H.2 SFRSYM    DATA     BIT       IT1
      000000A8H.2 SFRSYM    DATA     BIT       EX1
      000000C0H.7 SFRSYM    DATA     BIT       MASTER
      000000C0H.1 SFRSYM    DATA     BIT       ACK
      0000008AH   SFRSYM    DATA     BYTE      TL0
      000000B1H   SFRSYM    DATA     BYTE      OSCXCN
      0000008BH   SFRSYM    DATA     BYTE      TL1
      000000F9H   SFRSYM    DATA     BYTE      PCA0L
      000000B8H.4 SFRSYM    DATA     BIT       PS0
      000000C0H.6 SFRSYM    DATA     BIT       TXMODE
      000000B8H.1 SFRSYM    DATA     BIT       PT0
      000000B8H.3 SFRSYM    DATA     BIT       PT1
      000000D0H.3 SFRSYM    DATA     BIT       RS0
      00000088H.4 SFRSYM    DATA     BIT       TR0
      000000B8H.5 SFRSYM    DATA     BIT       PT2
      000000D0H.4 SFRSYM    DATA     BIT       RS1
      00000088H.6 SFRSYM    DATA     BIT       TR1
      000000E8H.6 SFRSYM    DATA     BIT       AD0TM
      000000B8H   SFRSYM    DATA     BIT       PX0
      000000C8H.2 SFRSYM    DATA     BIT       TR2
      000000B8H.2 SFRSYM    DATA     BIT       PX1
      000000D0H   SFRSYM    DATA     BIT       PARITY
      00000083H   SFRSYM    DATA     BYTE      DPH
      000000C4H   SFRSYM    DATA     BYTE      ADC0GTH
      00000082H   SFRSYM    DATA     BYTE      DPL
      00000099H   SFRSYM    DATA     BYTE      SBUF0
      000000C3H   SFRSYM    DATA     BYTE      ADC0GTL
      000000A8H.6 SFRSYM    DATA     BIT       ESPI0
      000000D3H   SFRSYM    DATA     BYTE      SBUF1
      000000C6H   SFRSYM    DATA     BYTE      ADC0LTH
      000000EFH   SFRSYM    DATA     BYTE      RSTSRC
      00000098H   SFRSYM    DATA     BYTE      SCON0
      000000E5H   SFRSYM    DATA     BYTE      SMOD1
      000000D2H   SFRSYM    DATA     BYTE      SCON1
      000000BAH   SFRSYM    DATA     BYTE      AMX0N
      000000C5H   SFRSYM    DATA     BYTE      ADC0LTL
      000000BBH   SFRSYM    DATA     BYTE      AMX0P
      000000C0H.5 SFRSYM    DATA     BIT       STA
      000000B8H.6 SFRSYM    DATA     BIT       PSPI0
      000000C2H   SFRSYM    DATA     BYTE      SMB0DAT
LX51 LINKER/LOCATER V4.09                                                             09/01/2010  15:06:34  PAGE 52


      000000CDH   SFRSYM    DATA     BYTE      TMR2H
      000000A1H   SFRSYM    DATA     BYTE      SPI0CFG
      00000095H   SFRSYM    DATA     BYTE      TMR3H
      0000008EH   SFRSYM    DATA     BYTE      CKCON
      000000C8H.1 SFRSYM    DATA     BIT       T2CSS
      000000F0H   SFRSYM    DATA     BIT       B0
      000000F8H.4 SFRSYM    DATA     BIT       RXOVRN
      000000F0H.1 SFRSYM    DATA     BIT       B1
      000000CCH   SFRSYM    DATA     BYTE      TMR2L
      000000C0H.3 SFRSYM    DATA     BIT       ACKRQ
      000000F0H.2 SFRSYM    DATA     BIT       B2
      00000096H   SFRSYM    DATA     BYTE      USB0ADR
      00000094H   SFRSYM    DATA     BYTE      TMR3L
      000000F0H.3 SFRSYM    DATA     BIT       B3
      000000D0H.5 SFRSYM    DATA     BIT       F0
      000000F0H.4 SFRSYM    DATA     BIT       B4
      00000097H   SFRSYM    DATA     BYTE      USB0DAT
      000000B6H   SFRSYM    DATA     BYTE      FLSCL
      000000C0H.4 SFRSYM    DATA     BIT       STO
      000000D0H.1 SFRSYM    DATA     BIT       F1
      000000E8H   SFRSYM    DATA     BIT       AD0CM0
      000000F0H.5 SFRSYM    DATA     BIT       B5
      000000E0H   SFRSYM    DATA     BIT       ACC0
      000000E8H.1 SFRSYM    DATA     BIT       AD0CM1
      000000F0H.6 SFRSYM    DATA     BIT       B6
      000000A3H   SFRSYM    DATA     BYTE      SPI0DAT
      000000E0H.1 SFRSYM    DATA     BIT       ACC1
      000000E8H.2 SFRSYM    DATA     BIT       AD0CM2
      000000F0H.7 SFRSYM    DATA     BIT       B7
      000000E0H.2 SFRSYM    DATA     BIT       ACC2
      000000E8H.3 SFRSYM    DATA     BIT       AD0WINT
      000000E0H.3 SFRSYM    DATA     BIT       ACC3
      000000E8H.4 SFRSYM    DATA     BIT       AD0BUSY
      000000D0H   SFRSYM    DATA     BYTE      PSW
      000000E0H.4 SFRSYM    DATA     BIT       ACC4
      00000098H.2 SFRSYM    DATA     BIT       RB80
      000000D8H   SFRSYM    DATA     BIT       CCF0
      000000E0H.5 SFRSYM    DATA     BIT       ACC5
      000000B7H   SFRSYM    DATA     BYTE      FLKEY
      000000D8H.1 SFRSYM    DATA     BIT       CCF1
      000000E0H.6 SFRSYM    DATA     BIT       ACC6

      010029D7H   BLOCK     CODE     ---       LVL=0
      ---         BLOCKEND  ---      ---       LVL=0

      01002477H   BLOCK     CODE     ---       LVL=0
      00000082H   SYMBOL    DATA     INT       x
      00000026H   SYMBOL    DATA     ---       str
      01002481H   BLOCK     CODE     NEAR LAB  LVL=1
      00000029H   SYMBOL    DATA     INT       i
      0000002BH   SYMBOL    DATA     INT       tmp
      ---         BLOCKEND  ---      ---       LVL=1
      01002477H   LINE      CODE     ---       #75
      01002481H   LINE      CODE     ---       #76
      01002481H   LINE      CODE     ---       #77
      01002487H   LINE      CODE     ---       #78
      0100248DH   LINE      CODE     ---       #79
      0100249CH   LINE      CODE     ---       #80
      0100249CH   LINE      CODE     ---       #81
      010024A4H   LINE      CODE     ---       #82
      010024AEH   LINE      CODE     ---       #83
      010024B0H   LINE      CODE     ---       #84
      010024B6H   LINE      CODE     ---       #85
      010024C3H   LINE      CODE     ---       #86
      010024D0H   LINE      CODE     ---       #87
LX51 LINKER/LOCATER V4.09                                                             09/01/2010  15:06:34  PAGE 53


      010024D0H   LINE      CODE     ---       #88
      010024EFH   LINE      CODE     ---       #89
      010024F9H   LINE      CODE     ---       #90
      010024FBH   LINE      CODE     ---       #91
      ---         BLOCKEND  ---      ---       LVL=0

      01002C3AH   BLOCK     CODE     ---       LVL=0
      01002C3AH   LINE      CODE     ---       #94
      01002C3AH   LINE      CODE     ---       #95
      01002C3AH   LINE      CODE     ---       #100
      01002C49H   LINE      CODE     ---       #101
      01002C4EH   LINE      CODE     ---       #102
      01002C51H   LINE      CODE     ---       #103
      01002C54H   LINE      CODE     ---       #104
      ---         BLOCKEND  ---      ---       LVL=0

      01002B05H   BLOCK     CODE     ---       LVL=0
      01002B05H   LINE      CODE     ---       #106
      01002B05H   LINE      CODE     ---       #107
      01002B05H   LINE      CODE     ---       #108
      01002B08H   LINE      CODE     ---       #109
      01002B0BH   LINE      CODE     ---       #110
      01002B0EH   LINE      CODE     ---       #112
      01002B11H   LINE      CODE     ---       #113
      01002B14H   LINE      CODE     ---       #114
      01002B17H   LINE      CODE     ---       #115
      01002B1AH   LINE      CODE     ---       #116
      01002B1DH   LINE      CODE     ---       #117
      01002B20H   LINE      CODE     ---       #121
      01002B23H   LINE      CODE     ---       #123
      01002B26H   LINE      CODE     ---       #124
      01002B29H   LINE      CODE     ---       #126
      01002B2CH   LINE      CODE     ---       #127
      01002B2FH   LINE      CODE     ---       #135
      01002B32H   LINE      CODE     ---       #137
      01002B35H   LINE      CODE     ---       #140
      ---         BLOCKEND  ---      ---       LVL=0

      01002C55H   BLOCK     CODE     ---       LVL=0
      01002C55H   LINE      CODE     ---       #144
      01002C55H   LINE      CODE     ---       #145
      01002C55H   LINE      CODE     ---       #146
      01002C58H   LINE      CODE     ---       #147
      01002C5BH   LINE      CODE     ---       #149
      01002C5EH   LINE      CODE     ---       #150
      01002C61H   LINE      CODE     ---       #151
      01002C63H   LINE      CODE     ---       #152
      01002C66H   LINE      CODE     ---       #153
      01002C69H   LINE      CODE     ---       #154
      01002C6BH   LINE      CODE     ---       #155
      01002C6EH   LINE      CODE     ---       #156
      ---         BLOCKEND  ---      ---       LVL=0

      01002ACEH   BLOCK     CODE     ---       LVL=0
      01002ACEH   BLOCK     CODE     NEAR LAB  LVL=1
      00000006H   SYMBOL    DATA     WORD      iTmp
      ---         BLOCKEND  ---      ---       LVL=1
      01002ACEH   LINE      CODE     ---       #157
      01002ACEH   LINE      CODE     ---       #158
      01002ACEH   LINE      CODE     ---       #162
      01002AD1H   LINE      CODE     ---       #164
      01002AD6H   LINE      CODE     ---       #165
      01002AD6H   LINE      CODE     ---       #166
      01002AD9H   LINE      CODE     ---       #167
      01002ADBH   LINE      CODE     ---       #168
LX51 LINKER/LOCATER V4.09                                                             09/01/2010  15:06:34  PAGE 54


      01002ADEH   LINE      CODE     ---       #169
      01002AEBH   LINE      CODE     ---       #170
      01002AEEH   LINE      CODE     ---       #171
      01002AFCH   LINE      CODE     ---       #172
      01002B01H   LINE      CODE     ---       #173
      01002B01H   LINE      CODE     ---       #175
      01002B04H   LINE      CODE     ---       #176
      ---         BLOCKEND  ---      ---       LVL=0

      01002CB7H   BLOCK     CODE     ---       LVL=0
      01002CB7H   LINE      CODE     ---       #179
      01002CB7H   LINE      CODE     ---       #180
      01002CB7H   LINE      CODE     ---       #181
      01002CBAH   LINE      CODE     ---       #182
      01002CBDH   LINE      CODE     ---       #183
      01002CC0H   LINE      CODE     ---       #184
      01002CC3H   LINE      CODE     ---       #185
      01002CC6H   LINE      CODE     ---       #186
      01002CC8H   LINE      CODE     ---       #187
      01002CCAH   LINE      CODE     ---       #188
      01002CCCH   LINE      CODE     ---       #189
      ---         BLOCKEND  ---      ---       LVL=0

      01002C6FH   BLOCK     CODE     ---       LVL=0
      00000001H   SYMBOL    DATA     ---       pSendString
      01002C6FH   LINE      CODE     ---       #205
      01002C6FH   LINE      CODE     ---       #207
      01002C6FH   LINE      CODE     ---       #211
      01002C71H   LINE      CODE     ---       #213
      01002C76H   LINE      CODE     ---       #214
      01002C76H   LINE      CODE     ---       #216
      01002C78H   LINE      CODE     ---       #218
      01002C7FH   LINE      CODE     ---       #220
      01002C82H   LINE      CODE     ---       #222
      01002C84H   LINE      CODE     ---       #224
      01002C86H   LINE      CODE     ---       #225
      01002C88H   LINE      CODE     ---       #227
      ---         BLOCKEND  ---      ---       LVL=0

      01002BE0H   BLOCK     CODE     ---       LVL=0
      01002BE0H   LINE      CODE     ---       #231
      01002BE9H   LINE      CODE     ---       #235
      01002BECH   LINE      CODE     ---       #237
      01002BEEH   LINE      CODE     ---       #239
      01002BF7H   LINE      CODE     ---       #241
      01002BF9H   LINE      CODE     ---       #243
      01002BFBH   LINE      CODE     ---       #245
      ---         BLOCKEND  ---      ---       LVL=0

      01002903H   BLOCK     CODE     ---       LVL=0
      01002903H   LINE      CODE     ---       #249
      01002907H   LINE      CODE     ---       #251
      0100290AH   LINE      CODE     ---       #252
      0100290DH   LINE      CODE     ---       #253
      01002913H   LINE      CODE     ---       #254
      0100291BH   LINE      CODE     ---       #255
      01002923H   LINE      CODE     ---       #257
      01002923H   LINE      CODE     ---       #258
      01002926H   LINE      CODE     ---       #259
      0100292EH   LINE      CODE     ---       #261
      0100292EH   LINE      CODE     ---       #262
      01002931H   LINE      CODE     ---       #263
      01002933H   LINE      CODE     ---       #264
      0100293AH   LINE      CODE     ---       #265
      0100293AH   LINE      CODE     ---       #266
LX51 LINKER/LOCATER V4.09                                                             09/01/2010  15:06:34  PAGE 55


      0100293DH   LINE      CODE     ---       #267
      0100293FH   LINE      CODE     ---       #268
      01002947H   LINE      CODE     ---       #269
      01002947H   LINE      CODE     ---       #270
      01002947H   LINE      CODE     ---       #271
      01002947H   LINE      CODE     ---       #272
      ---         BLOCKEND  ---      ---       LVL=0

      01002D03H   BLOCK     CODE     VOID      LVL=0
      ---         BLOCKEND  ---      ---       LVL=0

      01002D09H   BLOCK     CODE     ---       LVL=0
      00000007H   SYMBOL    DATA     BYTE      T
      01002D09H   LINE      CODE     ---       #275
      01002D09H   LINE      CODE     ---       #276
      01002D09H   LINE      CODE     ---       #277
      01002D0BH   LINE      CODE     ---       #278
      01002D0FH   LINE      CODE     ---       #279
      ---         BLOCKEND  ---      ---       LVL=0

      01000026H   BLOCK     CODE     ---       LVL=0
      00000020H.0 SYMBOL    BIT      BIT       b
      01000026H   LINE      CODE     ---       #283
      01000026H   LINE      CODE     ---       #284
      01000026H   LINE      CODE     ---       #285
      01000028H   LINE      CODE     ---       #286
      ---         BLOCKEND  ---      ---       LVL=0

      01001A4FH   BLOCK     CODE     ---       LVL=0
      01001A4FH   BLOCK     CODE     NEAR LAB  LVL=1
      00000021H   SYMBOL    DATA     WORD      event_word_copy
      00000023H   SYMBOL    DATA     ---       inbuf
      00000025H   SYMBOL    DATA     BYTE      error_code
      ---         BLOCKEND  ---      ---       LVL=1
      01001A4FH   LINE      CODE     ---       #296
      01001A4FH   LINE      CODE     ---       #297
      01001A4FH   LINE      CODE     ---       #303
      01001A52H   LINE      CODE     ---       #307
      01001A55H   LINE      CODE     ---       #308
      01001A58H   LINE      CODE     ---       #309
      01001A5BH   LINE      CODE     ---       #310
      01001A5EH   LINE      CODE     ---       #312
      01001A61H   LINE      CODE     ---       #313
      01001A64H   LINE      CODE     ---       #314
      01001A67H   LINE      CODE     ---       #315
      01001A6AH   LINE      CODE     ---       #316
      01001A6CH   LINE      CODE     ---       #317
      01001A6FH   LINE      CODE     ---       #318
      01001A72H   LINE      CODE     ---       #320
      01001A75H   LINE      CODE     ---       #323
      01001A7AH   LINE      CODE     ---       #324
      01001A7DH   LINE      CODE     ---       #327
      01001A82H   LINE      CODE     ---       #329
      01001A88H   LINE      CODE     ---       #330
      01001A8DH   LINE      CODE     ---       #335
      01001A92H   LINE      CODE     ---       #336
      01001A92H   LINE      CODE     ---       #337
      01001A95H   LINE      CODE     ---       #338
      01001A98H   LINE      CODE     ---       #339
      01001A98H   LINE      CODE     ---       #340
      01001A9BH   LINE      CODE     ---       #342
      01001A9DH   LINE      CODE     ---       #343
      01001AA3H   LINE      CODE     ---       #344
      01001AA5H   LINE      CODE     ---       #346
      01001AA5H   LINE      CODE     ---       #347
LX51 LINKER/LOCATER V4.09                                                             09/01/2010  15:06:34  PAGE 56


      01001AA5H   LINE      CODE     ---       #348
      01001AA8H   LINE      CODE     ---       #349
      01001AA8H   LINE      CODE     ---       #350
      01001AABH   LINE      CODE     ---       #351
      01001AAEH   LINE      CODE     ---       #353
      01001AB7H   LINE      CODE     ---       #356
      01001AB7H   LINE      CODE     ---       #357
      01001AB7H   LINE      CODE     ---       #374
      01001ABEH   LINE      CODE     ---       #375
      01001AC1H   LINE      CODE     ---       #378
      01001AC7H   LINE      CODE     ---       #379
      01001AC9H   LINE      CODE     ---       #382
      01001ACEH   LINE      CODE     ---       #383
      01001ACEH   LINE      CODE     ---       #384
      01001AD0H   LINE      CODE     ---       #385
      01001AD3H   LINE      CODE     ---       #386
      01001AD5H   LINE      CODE     ---       #391
      01001ADCH   LINE      CODE     ---       #392
      01001AE2H   LINE      CODE     ---       #393
      01001AE2H   LINE      CODE     ---       #396
      01001AE5H   LINE      CODE     ---       #400
      01001AEAH   LINE      CODE     ---       #401
      01001AEAH   LINE      CODE     ---       #403
      01001AECH   LINE      CODE     ---       #404
      01001AECH   LINE      CODE     ---       #405
      01001AECH   LINE      CODE     ---       #410
      01001AEEH   LINE      CODE     ---       #413
      01001AF3H   LINE      CODE     ---       #414
      01001AF3H   LINE      CODE     ---       #415
      01001AF6H   LINE      CODE     ---       #416
      01001AF8H   LINE      CODE     ---       #417
      01001AFBH   LINE      CODE     ---       #418
      01001AFDH   LINE      CODE     ---       #421
      01001B02H   LINE      CODE     ---       #422
      01001B02H   LINE      CODE     ---       #423
      01001B05H   LINE      CODE     ---       #424
      01001B07H   LINE      CODE     ---       #425
      01001B0AH   LINE      CODE     ---       #426
      01001B0CH   LINE      CODE     ---       #429
      01001B11H   LINE      CODE     ---       #430
      01001B11H   LINE      CODE     ---       #431
      01001B14H   LINE      CODE     ---       #432
      01001B16H   LINE      CODE     ---       #433
      01001B19H   LINE      CODE     ---       #434
      01001B1BH   LINE      CODE     ---       #437
      01001B20H   LINE      CODE     ---       #438
      01001B20H   LINE      CODE     ---       #439
      01001B23H   LINE      CODE     ---       #440
      01001B25H   LINE      CODE     ---       #441
      01001B28H   LINE      CODE     ---       #442
      01001B2AH   LINE      CODE     ---       #445
      01001B2FH   LINE      CODE     ---       #446
      01001B2FH   LINE      CODE     ---       #447
      01001B32H   LINE      CODE     ---       #448
      01001B34H   LINE      CODE     ---       #450
      01001B37H   LINE      CODE     ---       #451
      01001B3AH   LINE      CODE     ---       #455
      01001B42H   LINE      CODE     ---       #456
      01001B42H   LINE      CODE     ---       #457
      01001B45H   LINE      CODE     ---       #458
      01001B47H   LINE      CODE     ---       #459
      01001B47H   LINE      CODE     ---       #460
      ---         BLOCKEND  ---      ---       LVL=0

      01000009H   BLOCK     CODE     ---       LVL=0
LX51 LINKER/LOCATER V4.09                                                             09/01/2010  15:06:34  PAGE 57


      01000009H   LINE      CODE     ---       #463
      01000009H   LINE      CODE     ---       #464
      01000009H   LINE      CODE     ---       #466
      ---         BLOCKEND  ---      ---       LVL=0

      0100000AH   BLOCK     CODE     ---       LVL=0
      0100000AH   LINE      CODE     ---       #468
      0100000AH   LINE      CODE     ---       #469
      0100000AH   LINE      CODE     ---       #471
      ---         BLOCKEND  ---      ---       LVL=0

      01002841H   BLOCK     CODE     ---       LVL=0
      01002841H   BLOCK     CODE     NEAR LAB  LVL=1
      00000005H   SYMBOL    DATA     BYTE      temp_char
      00000006H   SYMBOL    DATA     BYTE      retval
      ---         BLOCKEND  ---      ---       LVL=1
      01002841H   LINE      CODE     ---       #473
      01002841H   LINE      CODE     ---       #474
      01002841H   LINE      CODE     ---       #476
      01002843H   LINE      CODE     ---       #483
      01002847H   LINE      CODE     ---       #489
      0100284DH   LINE      CODE     ---       #490
      0100284FH   LINE      CODE     ---       #493
      01002852H   LINE      CODE     ---       #494
      01002854H   LINE      CODE     ---       #495
      01002854H   LINE      CODE     ---       #496
      01002857H   LINE      CODE     ---       #501
      0100285AH   LINE      CODE     ---       #504
      0100285DH   LINE      CODE     ---       #507
      01002862H   LINE      CODE     ---       #528
      01002867H   LINE      CODE     ---       #532
      01002869H   LINE      CODE     ---       #537
      0100286CH   LINE      CODE     ---       #538
      0100286CH   LINE      CODE     ---       #539
      0100286CH   LINE      CODE     ---       #540
      0100286FH   LINE      CODE     ---       #546
      01002872H   LINE      CODE     ---       #552
      01002877H   LINE      CODE     ---       #553
      01002877H   LINE      CODE     ---       #554
      0100287AH   LINE      CODE     ---       #560
      0100287AH   LINE      CODE     ---       #562
      01002882H   LINE      CODE     ---       #563
      01002882H   LINE      CODE     ---       #564
      01002882H   LINE      CODE     ---       #567
      01002882H   LINE      CODE     ---       #571
      01002887H   LINE      CODE     ---       #572
      0100288AH   LINE      CODE     ---       #575
      0100288EH   LINE      CODE     ---       #578
      01002890H   LINE      CODE     ---       #582
      01002892H   LINE      CODE     ---       #585
      01002895H   LINE      CODE     ---       #588
      01002897H   LINE      CODE     ---       #591
      0100289DH   LINE      CODE     ---       #595
      0100289FH   LINE      CODE     ---       #598
      0100289FH   LINE      CODE     ---       #600
      010028A1H   LINE      CODE     ---       #603
      010028A1H   LINE      CODE     ---       #605
      010028A3H   LINE      CODE     ---       #607
      ---         BLOCKEND  ---      ---       LVL=0

      01001E7EH   BLOCK     CODE     ---       LVL=0
      01001E7EH   LINE      CODE     ---       #609
      01001E7EH   LINE      CODE     ---       #610
      01001E7EH   LINE      CODE     ---       #613
      01001E85H   LINE      CODE     ---       #617
LX51 LINKER/LOCATER V4.09                                                             09/01/2010  15:06:34  PAGE 58


      01001E8EH   LINE      CODE     ---       #618
      01001E90H   LINE      CODE     ---       #620
      01001E92H   LINE      CODE     ---       #624
      01001E9BH   LINE      CODE     ---       #625
      01001EA4H   LINE      CODE     ---       #627
      01001EA4H   LINE      CODE     ---       #630
      01001EADH   LINE      CODE     ---       #633
      01001EB6H   LINE      CODE     ---       #636
      01001EBCH   LINE      CODE     ---       #637
      01001EC2H   LINE      CODE     ---       #639
      01001ECAH   LINE      CODE     ---       #640
      01001ED2H   LINE      CODE     ---       #641
      01001EDAH   LINE      CODE     ---       #642
      01001EE2H   LINE      CODE     ---       #643
      01001EEAH   LINE      CODE     ---       #644
      01001EF2H   LINE      CODE     ---       #645
      01001EFAH   LINE      CODE     ---       #646
      01001F02H   LINE      CODE     ---       #647
      01001F0AH   LINE      CODE     ---       #648
      01001F12H   LINE      CODE     ---       #649
      01001F1AH   LINE      CODE     ---       #650
      01001F22H   LINE      CODE     ---       #652
      01001F2BH   LINE      CODE     ---       #655
      ---         BLOCKEND  ---      ---       LVL=0

      01002C02H   BLOCK     CODE     VOID      LVL=0
      ---         BLOCKEND  ---      ---       LVL=0

      01002C09H   BLOCK     CODE     ---       LVL=0
      00000007H   SYMBOL    DATA     BYTE      mac_reg_offset
      00000004H   SYMBOL    DATA     WORD      mac_reg_data
      01002C09H   LINE      CODE     ---       #659
      01002C09H   LINE      CODE     ---       #660
      01002C09H   LINE      CODE     ---       #663
      01002C0EH   LINE      CODE     ---       #666
      01002C13H   LINE      CODE     ---       #667
      01002C18H   LINE      CODE     ---       #671
      01002C1DH   LINE      CODE     ---       #674
      ---         BLOCKEND  ---      ---       LVL=0

      01002A95H   BLOCK     CODE     ---       LVL=0
      00000001H   SYMBOL    DATA     ---       pMAC
      01002A95H   BLOCK     CODE     NEAR LAB  LVL=1
      00000026H   SYMBOL    DATA     ---       temp_int
      ---         BLOCKEND  ---      ---       LVL=1
      01002A95H   LINE      CODE     ---       #687
      01002A95H   LINE      CODE     ---       #688
      01002A95H   LINE      CODE     ---       #691
      01002A9DH   LINE      CODE     ---       #692
      01002AA5H   LINE      CODE     ---       #693
      01002AAEH   LINE      CODE     ---       #695
      01002AB6H   LINE      CODE     ---       #696
      01002ABCH   LINE      CODE     ---       #697
      01002ABFH   LINE      CODE     ---       #699
      01002AC7H   LINE      CODE     ---       #700
      01002ACAH   LINE      CODE     ---       #701
      01002ACDH   LINE      CODE     ---       #704
      ---         BLOCKEND  ---      ---       LVL=0

      01002A1BH   BLOCK     CODE     ---       LVL=0
      00000026H   SYMBOL    DATA     ---       inbuf
      01002A1FH   BLOCK     CODE     NEAR LAB  LVL=1
      00000006H   SYMBOL    DATA     ---       eth
      ---         BLOCKEND  ---      ---       LVL=1
      01002A1BH   LINE      CODE     ---       #708
LX51 LINKER/LOCATER V4.09                                                             09/01/2010  15:06:34  PAGE 59


      01002A1FH   LINE      CODE     ---       #709
      01002A1FH   LINE      CODE     ---       #712
      01002A1FH   LINE      CODE     ---       #716
      01002A3BH   LINE      CODE     ---       #717
      01002A3BH   LINE      CODE     ---       #720
      01002A3BH   LINE      CODE     ---       #724
      01002A4DH   LINE      CODE     ---       #725
      01002A4DH   LINE      CODE     ---       #726
      01002A4DH   LINE      CODE     ---       #727
      01002A54H   LINE      CODE     ---       #728
      01002A54H   LINE      CODE     ---       #730
      01002A54H   LINE      CODE     ---       #731
      01002A5BH   LINE      CODE     ---       #732
      01002A5BH   LINE      CODE     ---       #734
      01002A5BH   LINE      CODE     ---       #736
      01002A5BH   LINE      CODE     ---       #737
      01002A5BH   LINE      CODE     ---       #738
      ---         BLOCKEND  ---      ---       LVL=0

      0100294CH   BLOCK     CODE     ---       LVL=0
      00000063H   SYMBOL    DATA     ---       outbuf
      00000001H   SYMBOL    DATA     ---       hwaddr
      00000068H   SYMBOL    DATA     WORD      ptype
      0000006AH   SYMBOL    DATA     WORD      len
      01002950H   BLOCK     CODE     NEAR LAB  LVL=1
      0000006CH   SYMBOL    DATA     ---       eth
      ---         BLOCKEND  ---      ---       LVL=1
      0100294CH   LINE      CODE     ---       #741
      01002950H   LINE      CODE     ---       #742
      01002950H   LINE      CODE     ---       #745
      01002956H   LINE      CODE     ---       #748
      0100295CH   LINE      CODE     ---       #749
      01002970H   LINE      CODE     ---       #750
      01002983H   LINE      CODE     ---       #753
      ---         BLOCKEND  ---      ---       LVL=0

      01002591H   BLOCK     CODE     ---       LVL=0
      0000006EH   SYMBOL    DATA     ---       outbuf
      00000070H   SYMBOL    DATA     WORD      len
      01002599H   BLOCK     CODE     NEAR LAB  LVL=1
      00000004H   SYMBOL    DATA     INT       i
      00000072H   SYMBOL    DATA     WORD      ramaddr
      ---         BLOCKEND  ---      ---       LVL=1
      01002591H   LINE      CODE     ---       #756
      01002599H   LINE      CODE     ---       #757
      01002599H   LINE      CODE     ---       #769
      0100259FH   LINE      CODE     ---       #772
      0100259FH   LINE      CODE     ---       #773
      010025A2H   LINE      CODE     ---       #782
      010025A6H   LINE      CODE     ---       #783
      010025AAH   LINE      CODE     ---       #784
      010025AEH   LINE      CODE     ---       #787
      010025B9H   LINE      CODE     ---       #788
      010025C8H   LINE      CODE     ---       #789
      010025D3H   LINE      CODE     ---       #790
      010025DAH   LINE      CODE     ---       #793
      010025E5H   LINE      CODE     ---       #794
      010025EAH   LINE      CODE     ---       #795
      010025F5H   LINE      CODE     ---       #796
      010025F7H   LINE      CODE     ---       #799
      010025FFH   LINE      CODE     ---       #800
      01002605H   LINE      CODE     ---       #801
      0100260BH   LINE      CODE     ---       #805
      0100260BH   LINE      CODE     ---       #806
      0100260EH   LINE      CODE     ---       #809
LX51 LINKER/LOCATER V4.09                                                             09/01/2010  15:06:34  PAGE 60


      01002613H   LINE      CODE     ---       #812
      ---         BLOCKEND  ---      ---       LVL=0

      01002297H   BLOCK     CODE     ---       LVL=0
      01002297H   BLOCK     CODE     NEAR LAB  LVL=1
      00000020H.0 SYMBOL    BIT      BIT       rx_ok
      00000020H.1 SYMBOL    BIT      BIT       skip
      00000026H   SYMBOL    DATA     ---       cplen
      00000028H   SYMBOL    DATA     WORD      i
      00000002H   SYMBOL    DATA     ---       buf
      00000007H   SYMBOL    DATA     BYTE      interrupt_read
      00000007H   SYMBOL    DATA     BYTE      valid_bits
      00000006H   SYMBOL    DATA     BYTE      num_packets
      ---         BLOCKEND  ---      ---       LVL=1
      01002297H   LINE      CODE     ---       #814
      01002297H   LINE      CODE     ---       #816
      01002297H   LINE      CODE     ---       #818
      01002299H   LINE      CODE     ---       #828
      0100229DH   LINE      CODE     ---       #829
      010022A1H   LINE      CODE     ---       #832
      010022A4H   LINE      CODE     ---       #833
      010022A4H   LINE      CODE     ---       #836
      010022A9H   LINE      CODE     ---       #837
      010022AEH   LINE      CODE     ---       #838
      010022AEH   LINE      CODE     ---       #839
      010022B1H   LINE      CODE     ---       #840
      010022B4H   LINE      CODE     ---       #843
      010022BAH   LINE      CODE     ---       #844
      010022BAH   LINE      CODE     ---       #845
      010022C0H   LINE      CODE     ---       #846
      010022C0H   LINE      CODE     ---       #847
      010022C0H   LINE      CODE     ---       #850
      010022D4H   LINE      CODE     ---       #853
      010022D7H   LINE      CODE     ---       #856
      010022DDH   LINE      CODE     ---       #857
      010022E3H   LINE      CODE     ---       #858
      010022E7H   LINE      CODE     ---       #861
      010022E9H   LINE      CODE     ---       #864
      010022EEH   LINE      CODE     ---       #867
      010022F0H   LINE      CODE     ---       #868
      010022F2H   LINE      CODE     ---       #869
      010022F2H   LINE      CODE     ---       #874
      010022F2H   LINE      CODE     ---       #877
      01002302H   LINE      CODE     ---       #878
      01002313H   LINE      CODE     ---       #879
      0100231DH   LINE      CODE     ---       #880
      01002321H   LINE      CODE     ---       #883
      01002321H   LINE      CODE     ---       #886
      01002321H   LINE      CODE     ---       #889
      01002321H   LINE      CODE     ---       #890
      01002321H   LINE      CODE     ---       #895
      01002328H   LINE      CODE     ---       #896
      01002328H   LINE      CODE     ---       #897
      0100232BH   LINE      CODE     ---       #898
      0100232DH   LINE      CODE     ---       #901
      0100232DH   LINE      CODE     ---       #902
      01002330H   LINE      CODE     ---       #903
      01002330H   LINE      CODE     ---       #906
      01002336H   LINE      CODE     ---       #907
      01002336H   LINE      CODE     ---       #908
      0100233AH   LINE      CODE     ---       #909
      0100233AH   LINE      CODE     ---       #912
      0100233EH   LINE      CODE     ---       #913
      ---         BLOCKEND  ---      ---       LVL=0

LX51 LINKER/LOCATER V4.09                                                             09/01/2010  15:06:34  PAGE 61


      ---         MODULE    ---      ---       TCP
      020000E5H   PUBLIC    XDATA    WORD      sender_tcpport
      000000A9H   PUBLIC    IDATA    DWORD     initial_sequence_nr
      02000000H   PUBLIC    XDATA    ---       conxn
      000000A8H   PUBLIC    IDATA    BYTE      just_closed
      0100838EH   PUBLIC    CONST    ---       opt
      010007B0H   PUBLIC    CODE     ---       _tcp_rcve
      01002774H   PUBLIC    CODE     ---       tcp_inactivity
      01001C22H   PUBLIC    CODE     ---       tcp_retransmit
      010011B6H   PUBLIC    CODE     ---       _tcp_send
      01002C1EH   PUBLIC    CODE     ---       init_tcp
      00000098H.3 SFRSYM    DATA     BIT       TB80
      000000D8H.2 SFRSYM    DATA     BIT       CCF2
      000000E0H.7 SFRSYM    DATA     BIT       ACC7
      000000A2H   SFRSYM    DATA     BYTE      SPI0CKR
      000000D8H.3 SFRSYM    DATA     BIT       CCF3
      00000080H   SFRSYM    DATA     BYTE      P0
      000000D8H.4 SFRSYM    DATA     BIT       CCF4
      000000F8H   SFRSYM    DATA     BIT       SPIEN
      00000090H   SFRSYM    DATA     BYTE      P1
      000000A0H   SFRSYM    DATA     BYTE      P2
      000000B0H   SFRSYM    DATA     BYTE      P3
      000000BCH   SFRSYM    DATA     BYTE      ADC0CF
      000000D0H.6 SFRSYM    DATA     BIT       AC
      000000C7H   SFRSYM    DATA     BYTE      P4
      000000E6H   SFRSYM    DATA     BYTE      EIE1
      00000098H.5 SFRSYM    DATA     BIT       MCE0
      000000A8H.7 SFRSYM    DATA     BIT       EA
      000000D7H   SFRSYM    DATA     BYTE      USB0XCN
      000000E7H   SFRSYM    DATA     BYTE      EIE2
      0000008FH   SFRSYM    DATA     BYTE      PSCTL
      000000D8H.7 SFRSYM    DATA     BIT       CF
      000000E4H   SFRSYM    DATA     BYTE      IT01CF
      000000E8H   SFRSYM    DATA     BYTE      ADC0CN
      000000A4H   SFRSYM    DATA     BYTE      P0MDOUT
      000000A5H   SFRSYM    DATA     BYTE      P1MDOUT
      000000CBH   SFRSYM    DATA     BYTE      TMR2RLH
      000000A6H   SFRSYM    DATA     BYTE      P2MDOUT
      000000A8H   SFRSYM    DATA     BYTE      IE
      000000C8H.4 SFRSYM    DATA     BIT       T2CE
      00000093H   SFRSYM    DATA     BYTE      TMR3RLH
      000000A7H   SFRSYM    DATA     BYTE      P3MDOUT
      000000AEH   SFRSYM    DATA     BYTE      P4MDOUT
      000000F6H   SFRSYM    DATA     BYTE      EIP1
      000000F8H.1 SFRSYM    DATA     BIT       TXBMT
      000000F7H   SFRSYM    DATA     BYTE      EIP2
      000000CAH   SFRSYM    DATA     BYTE      TMR2RLL
      000000FCH   SFRSYM    DATA     BYTE      PCA0CPH0
      00000092H   SFRSYM    DATA     BYTE      TMR3RLL
      000000EAH   SFRSYM    DATA     BYTE      PCA0CPH1
      000000ECH   SFRSYM    DATA     BYTE      PCA0CPH2
      000000C8H.7 SFRSYM    DATA     BIT       TF2H
      000000C8H.3 SFRSYM    DATA     BIT       T2SPLIT
      000000D8H.6 SFRSYM    DATA     BIT       CR
      000000EEH   SFRSYM    DATA     BYTE      PCA0CPH3
      00000098H.4 SFRSYM    DATA     BIT       REN0
      000000FBH   SFRSYM    DATA     BYTE      PCA0CPL0
      000000FEH   SFRSYM    DATA     BYTE      PCA0CPH4
      00000085H   SFRSYM    DATA     BYTE      EMI0CF
      000000D9H   SFRSYM    DATA     BYTE      PCA0MD
      000000DAH   SFRSYM    DATA     BYTE      PCA0CPM0
      000000E9H   SFRSYM    DATA     BYTE      PCA0CPL1
      000000D8H   SFRSYM    DATA     BYTE      PCA0CN
      000000DBH   SFRSYM    DATA     BYTE      PCA0CPM1
      000000EBH   SFRSYM    DATA     BYTE      PCA0CPL2
LX51 LINKER/LOCATER V4.09                                                             09/01/2010  15:06:34  PAGE 62


      000000C8H.6 SFRSYM    DATA     BIT       TF2L
      000000DCH   SFRSYM    DATA     BYTE      PCA0CPM2
      000000EDH   SFRSYM    DATA     BYTE      PCA0CPL3
      000000B8H   SFRSYM    DATA     BYTE      IP
      000000C0H.2 SFRSYM    DATA     BIT       ARBLOST
      000000DDH   SFRSYM    DATA     BYTE      PCA0CPM3
      000000FDH   SFRSYM    DATA     BYTE      PCA0CPL4
      000000DEH   SFRSYM    DATA     BYTE      PCA0CPM4
      000000C0H   SFRSYM    DATA     BIT       SI
      000000D0H.7 SFRSYM    DATA     BIT       CY
      000000E1H   SFRSYM    DATA     BYTE      XBR0
      000000C1H   SFRSYM    DATA     BYTE      SMB0CF
      000000E2H   SFRSYM    DATA     BYTE      XBR1
      000000AFH   SFRSYM    DATA     BYTE      PFE0CN
      000000AAH   SFRSYM    DATA     BYTE      EMI0CN
      000000E3H   SFRSYM    DATA     BYTE      XBR2
      000000D1H   SFRSYM    DATA     BYTE      REF0CN
      000000C9H   SFRSYM    DATA     BYTE      REG0CN
      000000E8H.5 SFRSYM    DATA     BIT       AD0INT
      00000081H   SFRSYM    DATA     BYTE      SP
      00000084H   SFRSYM    DATA     BYTE      EMI0TC
      000000D0H.2 SFRSYM    DATA     BIT       OV
      000000C0H   SFRSYM    DATA     BYTE      SMB0CN
      000000F8H.5 SFRSYM    DATA     BIT       MODF
      000000ACH   SFRSYM    DATA     BYTE      SBCON1
      00000098H.7 SFRSYM    DATA     BIT       S0MODE
      000000FFH   SFRSYM    DATA     BYTE      VDM0CN
      000000F1H   SFRSYM    DATA     BYTE      P0MDIN
      0000009DH   SFRSYM    DATA     BYTE      CPT0MD
      0000009BH   SFRSYM    DATA     BYTE      CPT0CN
      000000F2H   SFRSYM    DATA     BYTE      P1MDIN
      0000009CH   SFRSYM    DATA     BYTE      CPT1MD
      0000009AH   SFRSYM    DATA     BYTE      CPT1CN
      000000F3H   SFRSYM    DATA     BYTE      P2MDIN
      000000C8H.5 SFRSYM    DATA     BIT       TF2LEN
      000000F4H   SFRSYM    DATA     BYTE      P3MDIN
      000000B5H   SFRSYM    DATA     BYTE      SBRLH1
      000000F5H   SFRSYM    DATA     BYTE      P4MDIN
      000000F8H   SFRSYM    DATA     BYTE      SPI0CN
      00000080H   SFRSYM    DATA     BIT       P00
      00000080H.1 SFRSYM    DATA     BIT       P01
      00000090H   SFRSYM    DATA     BIT       P10
      00000087H   SFRSYM    DATA     BYTE      PCON
      00000080H.2 SFRSYM    DATA     BIT       P02
      00000090H.1 SFRSYM    DATA     BIT       P11
      000000A0H   SFRSYM    DATA     BIT       P20
      000000B4H   SFRSYM    DATA     BYTE      SBRLL1
      00000080H.3 SFRSYM    DATA     BIT       P03
      00000090H.2 SFRSYM    DATA     BIT       P12
      000000A0H.1 SFRSYM    DATA     BIT       P21
      000000B0H   SFRSYM    DATA     BIT       P30
      000000F8H.7 SFRSYM    DATA     BIT       SPIF
      00000080H.4 SFRSYM    DATA     BIT       P04
      00000090H.3 SFRSYM    DATA     BIT       P13
      000000A0H.2 SFRSYM    DATA     BIT       P22
      000000B0H.1 SFRSYM    DATA     BIT       P31
      00000080H.5 SFRSYM    DATA     BIT       P05
      00000090H.4 SFRSYM    DATA     BIT       P14
      000000A0H.3 SFRSYM    DATA     BIT       P23
      000000B0H.2 SFRSYM    DATA     BIT       P32
      00000089H   SFRSYM    DATA     BYTE      TMOD
      00000088H   SFRSYM    DATA     BYTE      TCON
      00000080H.6 SFRSYM    DATA     BIT       P06
      00000090H.5 SFRSYM    DATA     BIT       P15
      000000A0H.4 SFRSYM    DATA     BIT       P24
LX51 LINKER/LOCATER V4.09                                                             09/01/2010  15:06:34  PAGE 63


      000000B0H.3 SFRSYM    DATA     BIT       P33
      000000F8H.6 SFRSYM    DATA     BIT       WCOL
      00000080H.7 SFRSYM    DATA     BIT       P07
      00000090H.6 SFRSYM    DATA     BIT       P16
      000000A0H.5 SFRSYM    DATA     BIT       P25
      000000B0H.4 SFRSYM    DATA     BIT       P34
      000000F8H.2 SFRSYM    DATA     BIT       NSSMD0
      00000090H.7 SFRSYM    DATA     BIT       P17
      000000A0H.6 SFRSYM    DATA     BIT       P26
      000000B0H.5 SFRSYM    DATA     BIT       P35
      000000F8H.3 SFRSYM    DATA     BIT       NSSMD1
      000000C8H   SFRSYM    DATA     BYTE      TMR2CN
      000000A0H.7 SFRSYM    DATA     BIT       P27
      000000B0H.6 SFRSYM    DATA     BIT       P36
      00000091H   SFRSYM    DATA     BYTE      TMR3CN
      000000D4H   SFRSYM    DATA     BYTE      P0SKIP
      000000B0H.7 SFRSYM    DATA     BIT       P37
      000000C8H   SFRSYM    DATA     BIT       T2XCLK
      000000D5H   SFRSYM    DATA     BYTE      P1SKIP
      000000D6H   SFRSYM    DATA     BYTE      P2SKIP
      000000DFH   SFRSYM    DATA     BYTE      P3SKIP
      00000088H.1 SFRSYM    DATA     BIT       IE0
      0000009FH   SFRSYM    DATA     BYTE      CPT0MX
      00000088H.3 SFRSYM    DATA     BIT       IE1
      000000B3H   SFRSYM    DATA     BYTE      OSCICL
      0000009EH   SFRSYM    DATA     BYTE      CPT1MX
      000000A9H   SFRSYM    DATA     BYTE      CLKSEL
      000000B2H   SFRSYM    DATA     BYTE      OSCICN
      000000F0H   SFRSYM    DATA     BYTE      B
      000000BEH   SFRSYM    DATA     BYTE      ADC0H
      00000086H   SFRSYM    DATA     BYTE      OSCLCN
      000000BDH   SFRSYM    DATA     BYTE      ADC0L
      000000E0H   SFRSYM    DATA     BYTE      ACC
      000000A8H.4 SFRSYM    DATA     BIT       ES0
      000000A8H.1 SFRSYM    DATA     BIT       ET0
      000000E8H.7 SFRSYM    DATA     BIT       AD0EN
      00000088H.5 SFRSYM    DATA     BIT       TF0
      000000A8H.3 SFRSYM    DATA     BIT       ET1
      000000B9H   SFRSYM    DATA     BYTE      CLKMUL
      00000088H.7 SFRSYM    DATA     BIT       TF1
      00000098H   SFRSYM    DATA     BIT       RI0
      000000A8H.5 SFRSYM    DATA     BIT       ET2
      0000008CH   SFRSYM    DATA     BYTE      TH0
      00000088H   SFRSYM    DATA     BIT       IT0
      00000098H.1 SFRSYM    DATA     BIT       TI0
      000000A8H   SFRSYM    DATA     BIT       EX0
      0000008DH   SFRSYM    DATA     BYTE      TH1
      000000FAH   SFRSYM    DATA     BYTE      PCA0H
      00000088H.2 SFRSYM    DATA     BIT       IT1
      000000A8H.2 SFRSYM    DATA     BIT       EX1
      000000C0H.7 SFRSYM    DATA     BIT       MASTER
      000000C0H.1 SFRSYM    DATA     BIT       ACK
      0000008AH   SFRSYM    DATA     BYTE      TL0
      000000B1H   SFRSYM    DATA     BYTE      OSCXCN
      0000008BH   SFRSYM    DATA     BYTE      TL1
      000000F9H   SFRSYM    DATA     BYTE      PCA0L
      000000B8H.4 SFRSYM    DATA     BIT       PS0
      000000C0H.6 SFRSYM    DATA     BIT       TXMODE
      000000B8H.1 SFRSYM    DATA     BIT       PT0
      000000B8H.3 SFRSYM    DATA     BIT       PT1
      000000D0H.3 SFRSYM    DATA     BIT       RS0
      00000088H.4 SFRSYM    DATA     BIT       TR0
      000000B8H.5 SFRSYM    DATA     BIT       PT2
      000000D0H.4 SFRSYM    DATA     BIT       RS1
      00000088H.6 SFRSYM    DATA     BIT       TR1
LX51 LINKER/LOCATER V4.09                                                             09/01/2010  15:06:34  PAGE 64


      000000E8H.6 SFRSYM    DATA     BIT       AD0TM
      000000B8H   SFRSYM    DATA     BIT       PX0
      000000C8H.2 SFRSYM    DATA     BIT       TR2
      000000B8H.2 SFRSYM    DATA     BIT       PX1
      000000D0H   SFRSYM    DATA     BIT       PARITY
      00000083H   SFRSYM    DATA     BYTE      DPH
      000000C4H   SFRSYM    DATA     BYTE      ADC0GTH
      00000082H   SFRSYM    DATA     BYTE      DPL
      00000099H   SFRSYM    DATA     BYTE      SBUF0
      000000C3H   SFRSYM    DATA     BYTE      ADC0GTL
      000000A8H.6 SFRSYM    DATA     BIT       ESPI0
      000000D3H   SFRSYM    DATA     BYTE      SBUF1
      000000C6H   SFRSYM    DATA     BYTE      ADC0LTH
      000000EFH   SFRSYM    DATA     BYTE      RSTSRC
      00000098H   SFRSYM    DATA     BYTE      SCON0
      000000E5H   SFRSYM    DATA     BYTE      SMOD1
      000000D2H   SFRSYM    DATA     BYTE      SCON1
      000000BAH   SFRSYM    DATA     BYTE      AMX0N
      000000C5H   SFRSYM    DATA     BYTE      ADC0LTL
      000000BBH   SFRSYM    DATA     BYTE      AMX0P
      000000C0H.5 SFRSYM    DATA     BIT       STA
      000000B8H.6 SFRSYM    DATA     BIT       PSPI0
      000000C2H   SFRSYM    DATA     BYTE      SMB0DAT
      000000CDH   SFRSYM    DATA     BYTE      TMR2H
      000000A1H   SFRSYM    DATA     BYTE      SPI0CFG
      00000095H   SFRSYM    DATA     BYTE      TMR3H
      0000008EH   SFRSYM    DATA     BYTE      CKCON
      000000C8H.1 SFRSYM    DATA     BIT       T2CSS
      000000F0H   SFRSYM    DATA     BIT       B0
      000000F8H.4 SFRSYM    DATA     BIT       RXOVRN
      000000F0H.1 SFRSYM    DATA     BIT       B1
      000000CCH   SFRSYM    DATA     BYTE      TMR2L
      000000C0H.3 SFRSYM    DATA     BIT       ACKRQ
      000000F0H.2 SFRSYM    DATA     BIT       B2
      00000096H   SFRSYM    DATA     BYTE      USB0ADR
      00000094H   SFRSYM    DATA     BYTE      TMR3L
      000000F0H.3 SFRSYM    DATA     BIT       B3
      000000D0H.5 SFRSYM    DATA     BIT       F0
      000000F0H.4 SFRSYM    DATA     BIT       B4
      00000097H   SFRSYM    DATA     BYTE      USB0DAT
      000000B6H   SFRSYM    DATA     BYTE      FLSCL
      000000C0H.4 SFRSYM    DATA     BIT       STO
      000000D0H.1 SFRSYM    DATA     BIT       F1
      000000E8H   SFRSYM    DATA     BIT       AD0CM0
      000000F0H.5 SFRSYM    DATA     BIT       B5
      000000E0H   SFRSYM    DATA     BIT       ACC0
      000000E8H.1 SFRSYM    DATA     BIT       AD0CM1
      000000F0H.6 SFRSYM    DATA     BIT       B6
      000000A3H   SFRSYM    DATA     BYTE      SPI0DAT
      000000E0H.1 SFRSYM    DATA     BIT       ACC1
      000000E8H.2 SFRSYM    DATA     BIT       AD0CM2
      000000F0H.7 SFRSYM    DATA     BIT       B7
      000000E0H.2 SFRSYM    DATA     BIT       ACC2
      000000E8H.3 SFRSYM    DATA     BIT       AD0WINT
      000000E0H.3 SFRSYM    DATA     BIT       ACC3
      000000E8H.4 SFRSYM    DATA     BIT       AD0BUSY
      000000D0H   SFRSYM    DATA     BYTE      PSW
      000000E0H.4 SFRSYM    DATA     BIT       ACC4
      00000098H.2 SFRSYM    DATA     BIT       RB80
      000000D8H   SFRSYM    DATA     BIT       CCF0
      000000E0H.5 SFRSYM    DATA     BIT       ACC5
      000000B7H   SFRSYM    DATA     BYTE      FLKEY
      000000D8H.1 SFRSYM    DATA     BIT       CCF1
      000000E0H.6 SFRSYM    DATA     BIT       ACC6
      020000E1H   SYMBOL    XDATA    DWORD     sender_ipaddr
LX51 LINKER/LOCATER V4.09                                                             09/01/2010  15:06:34  PAGE 65



      01000FFAH   BLOCK     CODE     ---       LVL=0
      ---         BLOCKEND  ---      ---       LVL=0

      01002C1EH   BLOCK     CODE     ---       LVL=0
      01002C1EH   LINE      CODE     ---       #52
      01002C1EH   LINE      CODE     ---       #53
      01002C1EH   LINE      CODE     ---       #54
      01002C2DH   LINE      CODE     ---       #55
      01002C31H   LINE      CODE     ---       #56
      01002C39H   LINE      CODE     ---       #57
      ---         BLOCKEND  ---      ---       LVL=0

      010011B6H   BLOCK     CODE     ---       LVL=0
      00000034H   SYMBOL    DATA     WORD      flags
      00000036H   SYMBOL    DATA     WORD      hdr_len
      00000038H   SYMBOL    DATA     BYTE      nr
      010011C0H   BLOCK     CODE     NEAR LAB  LVL=1
      00000087H   SYMBOL    IDATA    DWORD     sum
      0000008BH   SYMBOL    IDATA    DWORD     dest
      0000008FH   SYMBOL    IDATA    WORD      result
      00000039H   SYMBOL    DATA     ---       outbuf
      0000003BH   SYMBOL    DATA     ---       tcp
      0000003DH   SYMBOL    DATA     ---       ip
      ---         BLOCKEND  ---      ---       LVL=1
      010011B6H   LINE      CODE     ---       #66
      010011C0H   LINE      CODE     ---       #67
      010011C0H   LINE      CODE     ---       #82
      010011C6H   LINE      CODE     ---       #84
      010011D1H   LINE      CODE     ---       #85
      010011DCH   LINE      CODE     ---       #90
      010011E2H   LINE      CODE     ---       #91
      010011E2H   LINE      CODE     ---       #92
      010011EDH   LINE      CODE     ---       #93
      010011F3H   LINE      CODE     ---       #94
      010011FDH   LINE      CODE     ---       #95
      0100120BH   LINE      CODE     ---       #96
      0100120EH   LINE      CODE     ---       #97
      01001210H   LINE      CODE     ---       #98
      0100121AH   LINE      CODE     ---       #99
      0100121AH   LINE      CODE     ---       #101
      01001226H   LINE      CODE     ---       #102
      0100122EH   LINE      CODE     ---       #103
      0100123DH   LINE      CODE     ---       #104
      01001250H   LINE      CODE     ---       #105
      01001260H   LINE      CODE     ---       #106
      01001260H   LINE      CODE     ---       #108
      01001260H   LINE      CODE     ---       #111
      01001260H   LINE      CODE     ---       #116
      01001278H   LINE      CODE     ---       #117
      01001285H   LINE      CODE     ---       #118
      01001290H   LINE      CODE     ---       #119
      0100129BH   LINE      CODE     ---       #122
      010012A3H   LINE      CODE     ---       #123
      010012A3H   LINE      CODE     ---       #124
      010012BDH   LINE      CODE     ---       #125
      010012BDH   LINE      CODE     ---       #129
      010012C9H   LINE      CODE     ---       #130
      010012D6H   LINE      CODE     ---       #133
      010012EEH   LINE      CODE     ---       #137
      010012F4H   LINE      CODE     ---       #138
      01001307H   LINE      CODE     ---       #141
      0100131DH   LINE      CODE     ---       #142
      0100132EH   LINE      CODE     ---       #144
      0100134BH   LINE      CODE     ---       #147
LX51 LINKER/LOCATER V4.09                                                             09/01/2010  15:06:34  PAGE 66


      01001353H   LINE      CODE     ---       #148
      ---         BLOCKEND  ---      ---       LVL=0

      01001C22H   BLOCK     CODE     ---       LVL=0
      01001C22H   BLOCK     CODE     NEAR LAB  LVL=1
      000000A7H   SYMBOL    IDATA    BYTE      retries
      00000076H   SYMBOL    IDATA    BYTE      nr
      ---         BLOCKEND  ---      ---       LVL=1
      01001C22H   LINE      CODE     ---       #164
      01001C22H   LINE      CODE     ---       #165
      01001C22H   LINE      CODE     ---       #170
      01001C32H   LINE      CODE     ---       #171
      01001C32H   LINE      CODE     ---       #172
      01001C4EH   LINE      CODE     ---       #173
      01001C4EH   LINE      CODE     ---       #175
      01001C56H   LINE      CODE     ---       #176
      01001C60H   LINE      CODE     ---       #177
      01001C60H   LINE      CODE     ---       #180
      01001C69H   LINE      CODE     ---       #181
      01001C69H   LINE      CODE     ---       #183
      01001C69H   LINE      CODE     ---       #184
      01001C6BH   LINE      CODE     ---       #186
      01001C6BH   LINE      CODE     ---       #188
      01001C6BH   LINE      CODE     ---       #191
      01001C7FH   LINE      CODE     ---       #192
      01001C7FH   LINE      CODE     ---       #194
      01001C89H   LINE      CODE     ---       #195
      01001C98H   LINE      CODE     ---       #197
      01001C98H   LINE      CODE     ---       #203
      01001CACH   LINE      CODE     ---       #204
      01001CACH   LINE      CODE     ---       #205
      01001CAFH   LINE      CODE     ---       #206
      01001CB9H   LINE      CODE     ---       #207
      01001CB9H   LINE      CODE     ---       #211
      01001CD0H   LINE      CODE     ---       #212
      01001CD8H   LINE      CODE     ---       #213
      01001CDAH   LINE      CODE     ---       #215
      01001CDAH   LINE      CODE     ---       #217
      01001CE0H   LINE      CODE     ---       #218
      01001CEEH   LINE      CODE     ---       #219
      01001CEEH   LINE      CODE     ---       #220
      01001CEEH   LINE      CODE     ---       #221
      01001CEEH   LINE      CODE     ---       #222
      01001CEEH   LINE      CODE     ---       #223
      01001CEEH   LINE      CODE     ---       #224
      01001CF4H   LINE      CODE     ---       #225
      ---         BLOCKEND  ---      ---       LVL=0

      01002774H   BLOCK     CODE     ---       LVL=0
      01002774H   BLOCK     CODE     NEAR LAB  LVL=1
      00000076H   SYMBOL    IDATA    BYTE      nr
      ---         BLOCKEND  ---      ---       LVL=1
      01002774H   LINE      CODE     ---       #235
      01002774H   LINE      CODE     ---       #236
      01002774H   LINE      CODE     ---       #240
      01002781H   LINE      CODE     ---       #241
      01002781H   LINE      CODE     ---       #242
      010027A0H   LINE      CODE     ---       #245
      010027A0H   LINE      CODE     ---       #247
      010027A8H   LINE      CODE     ---       #248
      010027AFH   LINE      CODE     ---       #249
      010027AFH   LINE      CODE     ---       #252
      010027B9H   LINE      CODE     ---       #253
      010027CFH   LINE      CODE     ---       #254
      010027D7H   LINE      CODE     ---       #255
LX51 LINKER/LOCATER V4.09                                                             09/01/2010  15:06:34  PAGE 67


      010027D7H   LINE      CODE     ---       #256
      010027D7H   LINE      CODE     ---       #257
      010027DCH   LINE      CODE     ---       #258
      ---         BLOCKEND  ---      ---       LVL=0

      010007B0H   BLOCK     CODE     ---       LVL=0
      0000002CH   SYMBOL    DATA     ---       inbuf
      0000002EH   SYMBOL    DATA     WORD      len
      010007B8H   BLOCK     CODE     NEAR LAB  LVL=1
      0000007AH   SYMBOL    IDATA    BYTE      i
      0000007BH   SYMBOL    IDATA    BYTE      j
      0000007CH   SYMBOL    IDATA    BYTE      nr
      0000007DH   SYMBOL    IDATA    WORD      result
      0000007FH   SYMBOL    IDATA    WORD      header_len
      00000081H   SYMBOL    IDATA    WORD      data_len
      00000030H   SYMBOL    DATA     ---       tcp
      00000032H   SYMBOL    DATA     ---       ip
      00000083H   SYMBOL    IDATA    DWORD     sum
      ---         BLOCKEND  ---      ---       LVL=1
      010007B0H   LINE      CODE     ---       #268
      010007B8H   LINE      CODE     ---       #269
      010007B8H   LINE      CODE     ---       #277
      010007C1H   LINE      CODE     ---       #278
      010007CAH   LINE      CODE     ---       #282
      010007E0H   LINE      CODE     ---       #286
      010007E6H   LINE      CODE     ---       #287
      010007F9H   LINE      CODE     ---       #290
      0100080FH   LINE      CODE     ---       #292
      01000819H   LINE      CODE     ---       #293
      01000819H   LINE      CODE     ---       #295
      01000819H   LINE      CODE     ---       #299
      01000827H   LINE      CODE     ---       #300
      01000827H   LINE      CODE     ---       #302
      0100082AH   LINE      CODE     ---       #304
      0100082AH   LINE      CODE     ---       #307
      01000834H   LINE      CODE     ---       #308
      01000843H   LINE      CODE     ---       #312
      01000850H   LINE      CODE     ---       #313
      01000850H   LINE      CODE     ---       #314
      01000880H   LINE      CODE     ---       #316
      01000880H   LINE      CODE     ---       #317
      01000884H   LINE      CODE     ---       #318
      01000886H   LINE      CODE     ---       #319
      01000886H   LINE      CODE     ---       #320
      0100088BH   LINE      CODE     ---       #324
      01000892H   LINE      CODE     ---       #325
      01000892H   LINE      CODE     ---       #326
      0100089AH   LINE      CODE     ---       #327
      0100089AH   LINE      CODE     ---       #329
      010008A6H   LINE      CODE     ---       #330
      010008A6H   LINE      CODE     ---       #331
      010008B2H   LINE      CODE     ---       #332
      010008B2H   LINE      CODE     ---       #333
      010008B7H   LINE      CODE     ---       #335
      010008BDH   LINE      CODE     ---       #336
      010008BFH   LINE      CODE     ---       #337
      010008BFH   LINE      CODE     ---       #338
      010008C4H   LINE      CODE     ---       #341
      010008CEH   LINE      CODE     ---       #344
      010008CEH   LINE      CODE     ---       #345
      010008CEH   LINE      CODE     ---       #350
      010008D9H   LINE      CODE     ---       #351
      010008D9H   LINE      CODE     ---       #353
      010008D9H   LINE      CODE     ---       #358
      010008EAH   LINE      CODE     ---       #359
LX51 LINKER/LOCATER V4.09                                                             09/01/2010  15:06:34  PAGE 68


      010008EAH   LINE      CODE     ---       #360
      010008F6H   LINE      CODE     ---       #361
      010008F8H   LINE      CODE     ---       #363
      010008F8H   LINE      CODE     ---       #368
      01000903H   LINE      CODE     ---       #369
      01000903H   LINE      CODE     ---       #373
      01000910H   LINE      CODE     ---       #375
      01000910H   LINE      CODE     ---       #377
      01000914H   LINE      CODE     ---       #378
      01000914H   LINE      CODE     ---       #380
      01000920H   LINE      CODE     ---       #382
      01000920H   LINE      CODE     ---       #383
      0100092CH   LINE      CODE     ---       #384
      01000934H   LINE      CODE     ---       #386
      01000934H   LINE      CODE     ---       #387
      01000934H   LINE      CODE     ---       #389
      0100093FH   LINE      CODE     ---       #390
      0100093FH   LINE      CODE     ---       #395
      0100093FH   LINE      CODE     ---       #399
      01000958H   LINE      CODE     ---       #400
      01000964H   LINE      CODE     ---       #405
      01000992H   LINE      CODE     ---       #406
      01000992H   LINE      CODE     ---       #407
      01000992H   LINE      CODE     ---       #408
      01000992H   LINE      CODE     ---       #411
      0100099EH   LINE      CODE     ---       #412
      0100099EH   LINE      CODE     ---       #416
      010009AEH   LINE      CODE     ---       #417
      010009BFH   LINE      CODE     ---       #418
      010009C6H   LINE      CODE     ---       #419
      010009D0H   LINE      CODE     ---       #420
      010009D8H   LINE      CODE     ---       #423
      010009DFH   LINE      CODE     ---       #424
      010009F0H   LINE      CODE     ---       #425
      010009F2H   LINE      CODE     ---       #432
      010009FDH   LINE      CODE     ---       #438
      01000A03H   LINE      CODE     ---       #440
      01000A09H   LINE      CODE     ---       #441
      01000A0CH   LINE      CODE     ---       #443
      01000A0CH   LINE      CODE     ---       #445
      01000A18H   LINE      CODE     ---       #446
      01000A20H   LINE      CODE     ---       #447
      01000A20H   LINE      CODE     ---       #448
      01000A23H   LINE      CODE     ---       #451
      01000A23H   LINE      CODE     ---       #453
      01000A40H   LINE      CODE     ---       #454
      01000A43H   LINE      CODE     ---       #456
      01000A4BH   LINE      CODE     ---       #457
      01000A4BH   LINE      CODE     ---       #459
      01000A4BH   LINE      CODE     ---       #460
      01000A4BH   LINE      CODE     ---       #461
      01000A4BH   LINE      CODE     ---       #465
      01000A4BH   LINE      CODE     ---       #466
      01000A4BH   LINE      CODE     ---       #467
      01000A4BH   LINE      CODE     ---       #468
      01000A4DH   LINE      CODE     ---       #471
      01000A5CH   LINE      CODE     ---       #472
      01000A5CH   LINE      CODE     ---       #473
      01000A62H   LINE      CODE     ---       #477
      01000A62H   LINE      CODE     ---       #478
      01000A65H   LINE      CODE     ---       #481
      01000A65H   LINE      CODE     ---       #482
      01000A68H   LINE      CODE     ---       #484
      01000A70H   LINE      CODE     ---       #485
      01000A70H   LINE      CODE     ---       #487
LX51 LINKER/LOCATER V4.09                                                             09/01/2010  15:06:34  PAGE 69


      01000A83H   LINE      CODE     ---       #488
      01000A86H   LINE      CODE     ---       #489
      01000A90H   LINE      CODE     ---       #493
      01000A9BH   LINE      CODE     ---       #494
      01000AA1H   LINE      CODE     ---       #495
      01000AA7H   LINE      CODE     ---       #496
      01000AAAH   LINE      CODE     ---       #497
      01000AB4H   LINE      CODE     ---       #498
      01000AB4H   LINE      CODE     ---       #502
      01000AD4H   LINE      CODE     ---       #503
      01000ADBH   LINE      CODE     ---       #509
      01000AF7H   LINE      CODE     ---       #512
      01000AFFH   LINE      CODE     ---       #513
      01000AFFH   LINE      CODE     ---       #514
      01000B02H   LINE      CODE     ---       #517
      01000B02H   LINE      CODE     ---       #520
      01000B02H   LINE      CODE     ---       #523
      01000B02H   LINE      CODE     ---       #524
      01000B02H   LINE      CODE     ---       #527
      01000B13H   LINE      CODE     ---       #528
      01000B13H   LINE      CODE     ---       #529
      01000B17H   LINE      CODE     ---       #530
      01000B17H   LINE      CODE     ---       #531
      01000B17H   LINE      CODE     ---       #532
      01000B17H   LINE      CODE     ---       #533
      01000B1AH   LINE      CODE     ---       #536
      01000B1AH   LINE      CODE     ---       #538
      01000B37H   LINE      CODE     ---       #539
      01000B3AH   LINE      CODE     ---       #541
      01000B42H   LINE      CODE     ---       #542
      01000B42H   LINE      CODE     ---       #544
      01000B4BH   LINE      CODE     ---       #545
      01000B4EH   LINE      CODE     ---       #548
      01000B5CH   LINE      CODE     ---       #549
      01000B5CH   LINE      CODE     ---       #550
      01000B64H   LINE      CODE     ---       #552
      01000B65H   LINE      CODE     ---       #553
      01000B65H   LINE      CODE     ---       #554
      01000B65H   LINE      CODE     ---       #555
      01000B67H   LINE      CODE     ---       #557
      01000B67H   LINE      CODE     ---       #560
      01000B6DH   LINE      CODE     ---       #561
      01000B6DH   LINE      CODE     ---       #562
      01000B70H   LINE      CODE     ---       #563
      01000B7CH   LINE      CODE     ---       #564
      01000B7CH   LINE      CODE     ---       #566
      01000B82H   LINE      CODE     ---       #567
      01000B82H   LINE      CODE     ---       #568
      01000B84H   LINE      CODE     ---       #571
      01000B84H   LINE      CODE     ---       #573
      01000BA1H   LINE      CODE     ---       #574
      01000BA4H   LINE      CODE     ---       #576
      01000BACH   LINE      CODE     ---       #577
      01000BACH   LINE      CODE     ---       #578
      01000BBAH   LINE      CODE     ---       #579
      01000BBDH   LINE      CODE     ---       #580
      01000BC7H   LINE      CODE     ---       #581
      01000BC8H   LINE      CODE     ---       #582
      01000BC8H   LINE      CODE     ---       #583
      01000BC8H   LINE      CODE     ---       #584
      01000BC8H   LINE      CODE     ---       #585
      01000BCAH   LINE      CODE     ---       #588
      01000BCAH   LINE      CODE     ---       #591
      01000BCAH   LINE      CODE     ---       #594
      01000BCAH   LINE      CODE     ---       #598
LX51 LINKER/LOCATER V4.09                                                             09/01/2010  15:06:34  PAGE 70


      01000BCAH   LINE      CODE     ---       #600
      01000BD8H   LINE      CODE     ---       #601
      01000BD8H   LINE      CODE     ---       #602
      01000BE2H   LINE      CODE     ---       #605
      01000BE8H   LINE      CODE     ---       #606
      01000BF5H   LINE      CODE     ---       #607
      01000BF9H   LINE      CODE     ---       #608
      01000BF9H   LINE      CODE     ---       #609
      01000BF9H   LINE      CODE     ---       #612
      01000BF9H   LINE      CODE     ---       #614
      01000BF9H   LINE      CODE     ---       #615
      01000BF9H   LINE      CODE     ---       #618
      01000BFEH   LINE      CODE     ---       #619
      01000BFEH   LINE      CODE     ---       #620
      01000C00H   LINE      CODE     ---       #622
      01000C00H   LINE      CODE     ---       #623
      ---         BLOCKEND  ---      ---       LVL=0

      ---         MODULE    ---      ---       TIMER
      01002CF3H   PUBLIC    CODE     ---       init_timer2
      01002142H   PUBLIC    CODE     ---       timer2_interrupt
      00000098H.3 SFRSYM    DATA     BIT       TB80
      000000D8H.2 SFRSYM    DATA     BIT       CCF2
      000000E0H.7 SFRSYM    DATA     BIT       ACC7
      000000A2H   SFRSYM    DATA     BYTE      SPI0CKR
      000000D8H.3 SFRSYM    DATA     BIT       CCF3
      00000080H   SFRSYM    DATA     BYTE      P0
      000000D8H.4 SFRSYM    DATA     BIT       CCF4
      000000F8H   SFRSYM    DATA     BIT       SPIEN
      00000090H   SFRSYM    DATA     BYTE      P1
      000000A0H   SFRSYM    DATA     BYTE      P2
      000000B0H   SFRSYM    DATA     BYTE      P3
      000000BCH   SFRSYM    DATA     BYTE      ADC0CF
      000000D0H.6 SFRSYM    DATA     BIT       AC
      000000C7H   SFRSYM    DATA     BYTE      P4
      000000E6H   SFRSYM    DATA     BYTE      EIE1
      00000098H.5 SFRSYM    DATA     BIT       MCE0
      000000A8H.7 SFRSYM    DATA     BIT       EA
      000000D7H   SFRSYM    DATA     BYTE      USB0XCN
      000000E7H   SFRSYM    DATA     BYTE      EIE2
      0000008FH   SFRSYM    DATA     BYTE      PSCTL
      000000D8H.7 SFRSYM    DATA     BIT       CF
      000000E4H   SFRSYM    DATA     BYTE      IT01CF
      000000E8H   SFRSYM    DATA     BYTE      ADC0CN
      000000A4H   SFRSYM    DATA     BYTE      P0MDOUT
      000000A5H   SFRSYM    DATA     BYTE      P1MDOUT
      000000CBH   SFRSYM    DATA     BYTE      TMR2RLH
      000000A6H   SFRSYM    DATA     BYTE      P2MDOUT
      000000A8H   SFRSYM    DATA     BYTE      IE
      000000C8H.4 SFRSYM    DATA     BIT       T2CE
      00000093H   SFRSYM    DATA     BYTE      TMR3RLH
      000000A7H   SFRSYM    DATA     BYTE      P3MDOUT
      000000AEH   SFRSYM    DATA     BYTE      P4MDOUT
      000000F6H   SFRSYM    DATA     BYTE      EIP1
      000000F8H.1 SFRSYM    DATA     BIT       TXBMT
      000000F7H   SFRSYM    DATA     BYTE      EIP2
      000000CAH   SFRSYM    DATA     BYTE      TMR2RLL
      000000FCH   SFRSYM    DATA     BYTE      PCA0CPH0
      00000092H   SFRSYM    DATA     BYTE      TMR3RLL
      000000EAH   SFRSYM    DATA     BYTE      PCA0CPH1
      000000ECH   SFRSYM    DATA     BYTE      PCA0CPH2
      000000C8H.7 SFRSYM    DATA     BIT       TF2H
      000000C8H.3 SFRSYM    DATA     BIT       T2SPLIT
      000000D8H.6 SFRSYM    DATA     BIT       CR
      000000EEH   SFRSYM    DATA     BYTE      PCA0CPH3
LX51 LINKER/LOCATER V4.09                                                             09/01/2010  15:06:34  PAGE 71


      00000098H.4 SFRSYM    DATA     BIT       REN0
      000000FBH   SFRSYM    DATA     BYTE      PCA0CPL0
      000000FEH   SFRSYM    DATA     BYTE      PCA0CPH4
      00000085H   SFRSYM    DATA     BYTE      EMI0CF
      000000D9H   SFRSYM    DATA     BYTE      PCA0MD
      000000DAH   SFRSYM    DATA     BYTE      PCA0CPM0
      000000E9H   SFRSYM    DATA     BYTE      PCA0CPL1
      000000D8H   SFRSYM    DATA     BYTE      PCA0CN
      000000DBH   SFRSYM    DATA     BYTE      PCA0CPM1
      000000EBH   SFRSYM    DATA     BYTE      PCA0CPL2
      000000C8H.6 SFRSYM    DATA     BIT       TF2L
      000000DCH   SFRSYM    DATA     BYTE      PCA0CPM2
      000000EDH   SFRSYM    DATA     BYTE      PCA0CPL3
      000000B8H   SFRSYM    DATA     BYTE      IP
      000000C0H.2 SFRSYM    DATA     BIT       ARBLOST
      000000DDH   SFRSYM    DATA     BYTE      PCA0CPM3
      000000FDH   SFRSYM    DATA     BYTE      PCA0CPL4
      000000DEH   SFRSYM    DATA     BYTE      PCA0CPM4
      000000C0H   SFRSYM    DATA     BIT       SI
      000000D0H.7 SFRSYM    DATA     BIT       CY
      000000E1H   SFRSYM    DATA     BYTE      XBR0
      000000C1H   SFRSYM    DATA     BYTE      SMB0CF
      000000E2H   SFRSYM    DATA     BYTE      XBR1
      000000AFH   SFRSYM    DATA     BYTE      PFE0CN
      000000AAH   SFRSYM    DATA     BYTE      EMI0CN
      000000E3H   SFRSYM    DATA     BYTE      XBR2
      000000D1H   SFRSYM    DATA     BYTE      REF0CN
      000000C9H   SFRSYM    DATA     BYTE      REG0CN
      000000E8H.5 SFRSYM    DATA     BIT       AD0INT
      00000081H   SFRSYM    DATA     BYTE      SP
      00000084H   SFRSYM    DATA     BYTE      EMI0TC
      000000D0H.2 SFRSYM    DATA     BIT       OV
      000000C0H   SFRSYM    DATA     BYTE      SMB0CN
      000000F8H.5 SFRSYM    DATA     BIT       MODF
      000000ACH   SFRSYM    DATA     BYTE      SBCON1
      00000098H.7 SFRSYM    DATA     BIT       S0MODE
      000000FFH   SFRSYM    DATA     BYTE      VDM0CN
      000000F1H   SFRSYM    DATA     BYTE      P0MDIN
      0000009DH   SFRSYM    DATA     BYTE      CPT0MD
      0000009BH   SFRSYM    DATA     BYTE      CPT0CN
      000000F2H   SFRSYM    DATA     BYTE      P1MDIN
      0000009CH   SFRSYM    DATA     BYTE      CPT1MD
      0000009AH   SFRSYM    DATA     BYTE      CPT1CN
      000000F3H   SFRSYM    DATA     BYTE      P2MDIN
      000000C8H.5 SFRSYM    DATA     BIT       TF2LEN
      000000F4H   SFRSYM    DATA     BYTE      P3MDIN
      000000B5H   SFRSYM    DATA     BYTE      SBRLH1
      000000F5H   SFRSYM    DATA     BYTE      P4MDIN
      000000F8H   SFRSYM    DATA     BYTE      SPI0CN
      00000080H   SFRSYM    DATA     BIT       P00
      00000080H.1 SFRSYM    DATA     BIT       P01
      00000090H   SFRSYM    DATA     BIT       P10
      00000087H   SFRSYM    DATA     BYTE      PCON
      00000080H.2 SFRSYM    DATA     BIT       P02
      00000090H.1 SFRSYM    DATA     BIT       P11
      000000A0H   SFRSYM    DATA     BIT       P20
      000000B4H   SFRSYM    DATA     BYTE      SBRLL1
      00000080H.3 SFRSYM    DATA     BIT       P03
      00000090H.2 SFRSYM    DATA     BIT       P12
      000000A0H.1 SFRSYM    DATA     BIT       P21
      000000B0H   SFRSYM    DATA     BIT       P30
      000000F8H.7 SFRSYM    DATA     BIT       SPIF
      00000080H.4 SFRSYM    DATA     BIT       P04
      00000090H.3 SFRSYM    DATA     BIT       P13
      000000A0H.2 SFRSYM    DATA     BIT       P22
LX51 LINKER/LOCATER V4.09                                                             09/01/2010  15:06:34  PAGE 72


      000000B0H.1 SFRSYM    DATA     BIT       P31
      00000080H.5 SFRSYM    DATA     BIT       P05
      00000090H.4 SFRSYM    DATA     BIT       P14
      000000A0H.3 SFRSYM    DATA     BIT       P23
      000000B0H.2 SFRSYM    DATA     BIT       P32
      00000089H   SFRSYM    DATA     BYTE      TMOD
      00000088H   SFRSYM    DATA     BYTE      TCON
      00000080H.6 SFRSYM    DATA     BIT       P06
      00000090H.5 SFRSYM    DATA     BIT       P15
      000000A0H.4 SFRSYM    DATA     BIT       P24
      000000B0H.3 SFRSYM    DATA     BIT       P33
      000000F8H.6 SFRSYM    DATA     BIT       WCOL
      00000080H.7 SFRSYM    DATA     BIT       P07
      00000090H.6 SFRSYM    DATA     BIT       P16
      000000A0H.5 SFRSYM    DATA     BIT       P25
      000000B0H.4 SFRSYM    DATA     BIT       P34
      000000F8H.2 SFRSYM    DATA     BIT       NSSMD0
      00000090H.7 SFRSYM    DATA     BIT       P17
      000000A0H.6 SFRSYM    DATA     BIT       P26
      000000B0H.5 SFRSYM    DATA     BIT       P35
      000000F8H.3 SFRSYM    DATA     BIT       NSSMD1
      000000C8H   SFRSYM    DATA     BYTE      TMR2CN
      000000A0H.7 SFRSYM    DATA     BIT       P27
      000000B0H.6 SFRSYM    DATA     BIT       P36
      00000091H   SFRSYM    DATA     BYTE      TMR3CN
      000000D4H   SFRSYM    DATA     BYTE      P0SKIP
      000000B0H.7 SFRSYM    DATA     BIT       P37
      000000C8H   SFRSYM    DATA     BIT       T2XCLK
      000000D5H   SFRSYM    DATA     BYTE      P1SKIP
      000000D6H   SFRSYM    DATA     BYTE      P2SKIP
      000000DFH   SFRSYM    DATA     BYTE      P3SKIP
      00000088H.1 SFRSYM    DATA     BIT       IE0
      0000009FH   SFRSYM    DATA     BYTE      CPT0MX
      00000088H.3 SFRSYM    DATA     BIT       IE1
      000000B3H   SFRSYM    DATA     BYTE      OSCICL
      0000009EH   SFRSYM    DATA     BYTE      CPT1MX
      000000A9H   SFRSYM    DATA     BYTE      CLKSEL
      000000B2H   SFRSYM    DATA     BYTE      OSCICN
      000000F0H   SFRSYM    DATA     BYTE      B
      000000BEH   SFRSYM    DATA     BYTE      ADC0H
      00000086H   SFRSYM    DATA     BYTE      OSCLCN
      000000BDH   SFRSYM    DATA     BYTE      ADC0L
      000000E0H   SFRSYM    DATA     BYTE      ACC
      000000A8H.4 SFRSYM    DATA     BIT       ES0
      000000A8H.1 SFRSYM    DATA     BIT       ET0
      000000E8H.7 SFRSYM    DATA     BIT       AD0EN
      00000088H.5 SFRSYM    DATA     BIT       TF0
      000000A8H.3 SFRSYM    DATA     BIT       ET1
      000000B9H   SFRSYM    DATA     BYTE      CLKMUL
      00000088H.7 SFRSYM    DATA     BIT       TF1
      00000098H   SFRSYM    DATA     BIT       RI0
      000000A8H.5 SFRSYM    DATA     BIT       ET2
      0000008CH   SFRSYM    DATA     BYTE      TH0
      00000088H   SFRSYM    DATA     BIT       IT0
      00000098H.1 SFRSYM    DATA     BIT       TI0
      000000A8H   SFRSYM    DATA     BIT       EX0
      0000008DH   SFRSYM    DATA     BYTE      TH1
      000000FAH   SFRSYM    DATA     BYTE      PCA0H
      00000088H.2 SFRSYM    DATA     BIT       IT1
      000000A8H.2 SFRSYM    DATA     BIT       EX1
      000000C0H.7 SFRSYM    DATA     BIT       MASTER
      000000C0H.1 SFRSYM    DATA     BIT       ACK
      0000008AH   SFRSYM    DATA     BYTE      TL0
      000000B1H   SFRSYM    DATA     BYTE      OSCXCN
      0000008BH   SFRSYM    DATA     BYTE      TL1
LX51 LINKER/LOCATER V4.09                                                             09/01/2010  15:06:34  PAGE 73


      000000F9H   SFRSYM    DATA     BYTE      PCA0L
      000000B8H.4 SFRSYM    DATA     BIT       PS0
      000000C0H.6 SFRSYM    DATA     BIT       TXMODE
      000000B8H.1 SFRSYM    DATA     BIT       PT0
      000000B8H.3 SFRSYM    DATA     BIT       PT1
      000000D0H.3 SFRSYM    DATA     BIT       RS0
      00000088H.4 SFRSYM    DATA     BIT       TR0
      000000B8H.5 SFRSYM    DATA     BIT       PT2
      000000D0H.4 SFRSYM    DATA     BIT       RS1
      00000088H.6 SFRSYM    DATA     BIT       TR1
      000000E8H.6 SFRSYM    DATA     BIT       AD0TM
      000000B8H   SFRSYM    DATA     BIT       PX0
      000000C8H.2 SFRSYM    DATA     BIT       TR2
      000000B8H.2 SFRSYM    DATA     BIT       PX1
      000000D0H   SFRSYM    DATA     BIT       PARITY
      00000083H   SFRSYM    DATA     BYTE      DPH
      000000C4H   SFRSYM    DATA     BYTE      ADC0GTH
      00000082H   SFRSYM    DATA     BYTE      DPL
      00000099H   SFRSYM    DATA     BYTE      SBUF0
      000000C3H   SFRSYM    DATA     BYTE      ADC0GTL
      000000A8H.6 SFRSYM    DATA     BIT       ESPI0
      000000D3H   SFRSYM    DATA     BYTE      SBUF1
      000000C6H   SFRSYM    DATA     BYTE      ADC0LTH
      000000EFH   SFRSYM    DATA     BYTE      RSTSRC
      00000098H   SFRSYM    DATA     BYTE      SCON0
      000000E5H   SFRSYM    DATA     BYTE      SMOD1
      000000D2H   SFRSYM    DATA     BYTE      SCON1
      000000BAH   SFRSYM    DATA     BYTE      AMX0N
      000000C5H   SFRSYM    DATA     BYTE      ADC0LTL
      000000BBH   SFRSYM    DATA     BYTE      AMX0P
      000000C0H.5 SFRSYM    DATA     BIT       STA
      000000B8H.6 SFRSYM    DATA     BIT       PSPI0
      000000C2H   SFRSYM    DATA     BYTE      SMB0DAT
      000000CDH   SFRSYM    DATA     BYTE      TMR2H
      000000A1H   SFRSYM    DATA     BYTE      SPI0CFG
      00000095H   SFRSYM    DATA     BYTE      TMR3H
      0000008EH   SFRSYM    DATA     BYTE      CKCON
      000000C8H.1 SFRSYM    DATA     BIT       T2CSS
      000000F0H   SFRSYM    DATA     BIT       B0
      000000F8H.4 SFRSYM    DATA     BIT       RXOVRN
      000000F0H.1 SFRSYM    DATA     BIT       B1
      000000CCH   SFRSYM    DATA     BYTE      TMR2L
      000000C0H.3 SFRSYM    DATA     BIT       ACKRQ
      000000F0H.2 SFRSYM    DATA     BIT       B2
      00000096H   SFRSYM    DATA     BYTE      USB0ADR
      00000094H   SFRSYM    DATA     BYTE      TMR3L
      000000F0H.3 SFRSYM    DATA     BIT       B3
      000000D0H.5 SFRSYM    DATA     BIT       F0
      000000F0H.4 SFRSYM    DATA     BIT       B4
      00000097H   SFRSYM    DATA     BYTE      USB0DAT
      000000B6H   SFRSYM    DATA     BYTE      FLSCL
      000000C0H.4 SFRSYM    DATA     BIT       STO
      000000D0H.1 SFRSYM    DATA     BIT       F1
      000000E8H   SFRSYM    DATA     BIT       AD0CM0
      000000F0H.5 SFRSYM    DATA     BIT       B5
      000000E0H   SFRSYM    DATA     BIT       ACC0
      000000E8H.1 SFRSYM    DATA     BIT       AD0CM1
      000000F0H.6 SFRSYM    DATA     BIT       B6
      000000A3H   SFRSYM    DATA     BYTE      SPI0DAT
      000000E0H.1 SFRSYM    DATA     BIT       ACC1
      000000E8H.2 SFRSYM    DATA     BIT       AD0CM2
      000000F0H.7 SFRSYM    DATA     BIT       B7
      000000E0H.2 SFRSYM    DATA     BIT       ACC2
      000000E8H.3 SFRSYM    DATA     BIT       AD0WINT
      000000E0H.3 SFRSYM    DATA     BIT       ACC3
LX51 LINKER/LOCATER V4.09                                                             09/01/2010  15:06:34  PAGE 74


      000000E8H.4 SFRSYM    DATA     BIT       AD0BUSY
      000000D0H   SFRSYM    DATA     BYTE      PSW
      000000E0H.4 SFRSYM    DATA     BIT       ACC4
      00000098H.2 SFRSYM    DATA     BIT       RB80
      000000D8H   SFRSYM    DATA     BIT       CCF0
      000000E0H.5 SFRSYM    DATA     BIT       ACC5
      000000B7H   SFRSYM    DATA     BYTE      FLKEY
      000000D8H.1 SFRSYM    DATA     BIT       CCF1
      000000E0H.6 SFRSYM    DATA     BIT       ACC6

      01002142H   BLOCK     CODE     ---       LVL=0
      01002159H   BLOCK     CODE     NEAR LAB  LVL=1
      0000001BH   SYMBOL    DATA     WORD      count1
      0000001DH   SYMBOL    DATA     WORD      count2
      ---         BLOCKEND  ---      ---       LVL=1
      01002142H   LINE      CODE     ---       #23
      01002159H   LINE      CODE     ---       #28
      0100215BH   LINE      CODE     ---       #32
      01002173H   LINE      CODE     ---       #34
      0100218BH   LINE      CODE     ---       #36
      01002193H   LINE      CODE     ---       #38
      0100219CH   LINE      CODE     ---       #40
      010021A7H   LINE      CODE     ---       #42
      010021B2H   LINE      CODE     ---       #44
      010021BAH   LINE      CODE     ---       #45
      010021BAH   LINE      CODE     ---       #46
      010021BEH   LINE      CODE     ---       #47
      010021C1H   LINE      CODE     ---       #48
      010021C1H   LINE      CODE     ---       #50
      010021C9H   LINE      CODE     ---       #51
      010021D1H   LINE      CODE     ---       #52
      010021D1H   LINE      CODE     ---       #55
      010021D7H   LINE      CODE     ---       #56
      010021DAH   LINE      CODE     ---       #57
      010021DAH   LINE      CODE     ---       #58
      ---         BLOCKEND  ---      ---       LVL=0

      01002CF3H   BLOCK     CODE     ---       LVL=0
      01002CF3H   LINE      CODE     ---       #69
      01002CF3H   LINE      CODE     ---       #70
      01002CF3H   LINE      CODE     ---       #71
      01002CF6H   LINE      CODE     ---       #72
      01002CF9H   LINE      CODE     ---       #73
      01002CFBH   LINE      CODE     ---       #74
      01002CFEH   LINE      CODE     ---       #75
      01002D00H   LINE      CODE     ---       #76
      01002D02H   LINE      CODE     ---       #77
      ---         BLOCKEND  ---      ---       LVL=0

      ---         MODULE    ---      ---       UDP
      02000183H   PUBLIC    XDATA    WORD      sender_udpport
      01001CF5H   PUBLIC    CODE     ---       _udp_rcve
      01001736H   PUBLIC    CODE     ---       _udp_send
      01002D10H   PUBLIC    CODE     ---       _udp_echo_service
      00000098H.3 SFRSYM    DATA     BIT       TB80
      000000D8H.2 SFRSYM    DATA     BIT       CCF2
      000000E0H.7 SFRSYM    DATA     BIT       ACC7
      000000A2H   SFRSYM    DATA     BYTE      SPI0CKR
      000000D8H.3 SFRSYM    DATA     BIT       CCF3
      00000080H   SFRSYM    DATA     BYTE      P0
      000000D8H.4 SFRSYM    DATA     BIT       CCF4
      000000F8H   SFRSYM    DATA     BIT       SPIEN
      00000090H   SFRSYM    DATA     BYTE      P1
      000000A0H   SFRSYM    DATA     BYTE      P2
      000000B0H   SFRSYM    DATA     BYTE      P3
LX51 LINKER/LOCATER V4.09                                                             09/01/2010  15:06:34  PAGE 75


      000000BCH   SFRSYM    DATA     BYTE      ADC0CF
      000000D0H.6 SFRSYM    DATA     BIT       AC
      000000C7H   SFRSYM    DATA     BYTE      P4
      000000E6H   SFRSYM    DATA     BYTE      EIE1
      00000098H.5 SFRSYM    DATA     BIT       MCE0
      000000A8H.7 SFRSYM    DATA     BIT       EA
      000000D7H   SFRSYM    DATA     BYTE      USB0XCN
      000000E7H   SFRSYM    DATA     BYTE      EIE2
      0000008FH   SFRSYM    DATA     BYTE      PSCTL
      000000D8H.7 SFRSYM    DATA     BIT       CF
      000000E4H   SFRSYM    DATA     BYTE      IT01CF
      000000E8H   SFRSYM    DATA     BYTE      ADC0CN
      000000A4H   SFRSYM    DATA     BYTE      P0MDOUT
      000000A5H   SFRSYM    DATA     BYTE      P1MDOUT
      000000CBH   SFRSYM    DATA     BYTE      TMR2RLH
      000000A6H   SFRSYM    DATA     BYTE      P2MDOUT
      000000A8H   SFRSYM    DATA     BYTE      IE
      000000C8H.4 SFRSYM    DATA     BIT       T2CE
      00000093H   SFRSYM    DATA     BYTE      TMR3RLH
      000000A7H   SFRSYM    DATA     BYTE      P3MDOUT
      000000AEH   SFRSYM    DATA     BYTE      P4MDOUT
      000000F6H   SFRSYM    DATA     BYTE      EIP1
      000000F8H.1 SFRSYM    DATA     BIT       TXBMT
      000000F7H   SFRSYM    DATA     BYTE      EIP2
      000000CAH   SFRSYM    DATA     BYTE      TMR2RLL
      000000FCH   SFRSYM    DATA     BYTE      PCA0CPH0
      00000092H   SFRSYM    DATA     BYTE      TMR3RLL
      000000EAH   SFRSYM    DATA     BYTE      PCA0CPH1
      000000ECH   SFRSYM    DATA     BYTE      PCA0CPH2
      000000C8H.7 SFRSYM    DATA     BIT       TF2H
      000000C8H.3 SFRSYM    DATA     BIT       T2SPLIT
      000000D8H.6 SFRSYM    DATA     BIT       CR
      000000EEH   SFRSYM    DATA     BYTE      PCA0CPH3
      00000098H.4 SFRSYM    DATA     BIT       REN0
      000000FBH   SFRSYM    DATA     BYTE      PCA0CPL0
      000000FEH   SFRSYM    DATA     BYTE      PCA0CPH4
      00000085H   SFRSYM    DATA     BYTE      EMI0CF
      000000D9H   SFRSYM    DATA     BYTE      PCA0MD
      000000DAH   SFRSYM    DATA     BYTE      PCA0CPM0
      000000E9H   SFRSYM    DATA     BYTE      PCA0CPL1
      000000D8H   SFRSYM    DATA     BYTE      PCA0CN
      000000DBH   SFRSYM    DATA     BYTE      PCA0CPM1
      000000EBH   SFRSYM    DATA     BYTE      PCA0CPL2
      000000C8H.6 SFRSYM    DATA     BIT       TF2L
      000000DCH   SFRSYM    DATA     BYTE      PCA0CPM2
      000000EDH   SFRSYM    DATA     BYTE      PCA0CPL3
      000000B8H   SFRSYM    DATA     BYTE      IP
      000000C0H.2 SFRSYM    DATA     BIT       ARBLOST
      000000DDH   SFRSYM    DATA     BYTE      PCA0CPM3
      000000FDH   SFRSYM    DATA     BYTE      PCA0CPL4
      000000DEH   SFRSYM    DATA     BYTE      PCA0CPM4
      000000C0H   SFRSYM    DATA     BIT       SI
      000000D0H.7 SFRSYM    DATA     BIT       CY
      000000E1H   SFRSYM    DATA     BYTE      XBR0
      000000C1H   SFRSYM    DATA     BYTE      SMB0CF
      000000E2H   SFRSYM    DATA     BYTE      XBR1
      000000AFH   SFRSYM    DATA     BYTE      PFE0CN
      000000AAH   SFRSYM    DATA     BYTE      EMI0CN
      000000E3H   SFRSYM    DATA     BYTE      XBR2
      000000D1H   SFRSYM    DATA     BYTE      REF0CN
      000000C9H   SFRSYM    DATA     BYTE      REG0CN
      000000E8H.5 SFRSYM    DATA     BIT       AD0INT
      00000081H   SFRSYM    DATA     BYTE      SP
      00000084H   SFRSYM    DATA     BYTE      EMI0TC
      000000D0H.2 SFRSYM    DATA     BIT       OV
LX51 LINKER/LOCATER V4.09                                                             09/01/2010  15:06:34  PAGE 76


      000000C0H   SFRSYM    DATA     BYTE      SMB0CN
      000000F8H.5 SFRSYM    DATA     BIT       MODF
      000000ACH   SFRSYM    DATA     BYTE      SBCON1
      00000098H.7 SFRSYM    DATA     BIT       S0MODE
      000000FFH   SFRSYM    DATA     BYTE      VDM0CN
      000000F1H   SFRSYM    DATA     BYTE      P0MDIN
      0000009DH   SFRSYM    DATA     BYTE      CPT0MD
      0000009BH   SFRSYM    DATA     BYTE      CPT0CN
      000000F2H   SFRSYM    DATA     BYTE      P1MDIN
      0000009CH   SFRSYM    DATA     BYTE      CPT1MD
      0000009AH   SFRSYM    DATA     BYTE      CPT1CN
      000000F3H   SFRSYM    DATA     BYTE      P2MDIN
      000000C8H.5 SFRSYM    DATA     BIT       TF2LEN
      000000F4H   SFRSYM    DATA     BYTE      P3MDIN
      000000B5H   SFRSYM    DATA     BYTE      SBRLH1
      000000F5H   SFRSYM    DATA     BYTE      P4MDIN
      000000F8H   SFRSYM    DATA     BYTE      SPI0CN
      00000080H   SFRSYM    DATA     BIT       P00
      00000080H.1 SFRSYM    DATA     BIT       P01
      00000090H   SFRSYM    DATA     BIT       P10
      00000087H   SFRSYM    DATA     BYTE      PCON
      00000080H.2 SFRSYM    DATA     BIT       P02
      00000090H.1 SFRSYM    DATA     BIT       P11
      000000A0H   SFRSYM    DATA     BIT       P20
      000000B4H   SFRSYM    DATA     BYTE      SBRLL1
      00000080H.3 SFRSYM    DATA     BIT       P03
      00000090H.2 SFRSYM    DATA     BIT       P12
      000000A0H.1 SFRSYM    DATA     BIT       P21
      000000B0H   SFRSYM    DATA     BIT       P30
      000000F8H.7 SFRSYM    DATA     BIT       SPIF
      00000080H.4 SFRSYM    DATA     BIT       P04
      00000090H.3 SFRSYM    DATA     BIT       P13
      000000A0H.2 SFRSYM    DATA     BIT       P22
      000000B0H.1 SFRSYM    DATA     BIT       P31
      00000080H.5 SFRSYM    DATA     BIT       P05
      00000090H.4 SFRSYM    DATA     BIT       P14
      000000A0H.3 SFRSYM    DATA     BIT       P23
      000000B0H.2 SFRSYM    DATA     BIT       P32
      00000089H   SFRSYM    DATA     BYTE      TMOD
      00000088H   SFRSYM    DATA     BYTE      TCON
      00000080H.6 SFRSYM    DATA     BIT       P06
      00000090H.5 SFRSYM    DATA     BIT       P15
      000000A0H.4 SFRSYM    DATA     BIT       P24
      000000B0H.3 SFRSYM    DATA     BIT       P33
      000000F8H.6 SFRSYM    DATA     BIT       WCOL
      00000080H.7 SFRSYM    DATA     BIT       P07
      00000090H.6 SFRSYM    DATA     BIT       P16
      000000A0H.5 SFRSYM    DATA     BIT       P25
      000000B0H.4 SFRSYM    DATA     BIT       P34
      000000F8H.2 SFRSYM    DATA     BIT       NSSMD0
      00000090H.7 SFRSYM    DATA     BIT       P17
      000000A0H.6 SFRSYM    DATA     BIT       P26
      000000B0H.5 SFRSYM    DATA     BIT       P35
      000000F8H.3 SFRSYM    DATA     BIT       NSSMD1
      000000C8H   SFRSYM    DATA     BYTE      TMR2CN
      000000A0H.7 SFRSYM    DATA     BIT       P27
      000000B0H.6 SFRSYM    DATA     BIT       P36
      00000091H   SFRSYM    DATA     BYTE      TMR3CN
      000000D4H   SFRSYM    DATA     BYTE      P0SKIP
      000000B0H.7 SFRSYM    DATA     BIT       P37
      000000C8H   SFRSYM    DATA     BIT       T2XCLK
      000000D5H   SFRSYM    DATA     BYTE      P1SKIP
      000000D6H   SFRSYM    DATA     BYTE      P2SKIP
      000000DFH   SFRSYM    DATA     BYTE      P3SKIP
      00000088H.1 SFRSYM    DATA     BIT       IE0
LX51 LINKER/LOCATER V4.09                                                             09/01/2010  15:06:34  PAGE 77


      0000009FH   SFRSYM    DATA     BYTE      CPT0MX
      00000088H.3 SFRSYM    DATA     BIT       IE1
      000000B3H   SFRSYM    DATA     BYTE      OSCICL
      0000009EH   SFRSYM    DATA     BYTE      CPT1MX
      000000A9H   SFRSYM    DATA     BYTE      CLKSEL
      000000B2H   SFRSYM    DATA     BYTE      OSCICN
      000000F0H   SFRSYM    DATA     BYTE      B
      000000BEH   SFRSYM    DATA     BYTE      ADC0H
      00000086H   SFRSYM    DATA     BYTE      OSCLCN
      000000BDH   SFRSYM    DATA     BYTE      ADC0L
      000000E0H   SFRSYM    DATA     BYTE      ACC
      000000A8H.4 SFRSYM    DATA     BIT       ES0
      000000A8H.1 SFRSYM    DATA     BIT       ET0
      000000E8H.7 SFRSYM    DATA     BIT       AD0EN
      00000088H.5 SFRSYM    DATA     BIT       TF0
      000000A8H.3 SFRSYM    DATA     BIT       ET1
      000000B9H   SFRSYM    DATA     BYTE      CLKMUL
      00000088H.7 SFRSYM    DATA     BIT       TF1
      00000098H   SFRSYM    DATA     BIT       RI0
      000000A8H.5 SFRSYM    DATA     BIT       ET2
      0000008CH   SFRSYM    DATA     BYTE      TH0
      00000088H   SFRSYM    DATA     BIT       IT0
      00000098H.1 SFRSYM    DATA     BIT       TI0
      000000A8H   SFRSYM    DATA     BIT       EX0
      0000008DH   SFRSYM    DATA     BYTE      TH1
      000000FAH   SFRSYM    DATA     BYTE      PCA0H
      00000088H.2 SFRSYM    DATA     BIT       IT1
      000000A8H.2 SFRSYM    DATA     BIT       EX1
      000000C0H.7 SFRSYM    DATA     BIT       MASTER
      000000C0H.1 SFRSYM    DATA     BIT       ACK
      0000008AH   SFRSYM    DATA     BYTE      TL0
      000000B1H   SFRSYM    DATA     BYTE      OSCXCN
      0000008BH   SFRSYM    DATA     BYTE      TL1
      000000F9H   SFRSYM    DATA     BYTE      PCA0L
      000000B8H.4 SFRSYM    DATA     BIT       PS0
      000000C0H.6 SFRSYM    DATA     BIT       TXMODE
      000000B8H.1 SFRSYM    DATA     BIT       PT0
      000000B8H.3 SFRSYM    DATA     BIT       PT1
      000000D0H.3 SFRSYM    DATA     BIT       RS0
      00000088H.4 SFRSYM    DATA     BIT       TR0
      000000B8H.5 SFRSYM    DATA     BIT       PT2
      000000D0H.4 SFRSYM    DATA     BIT       RS1
      00000088H.6 SFRSYM    DATA     BIT       TR1
      000000E8H.6 SFRSYM    DATA     BIT       AD0TM
      000000B8H   SFRSYM    DATA     BIT       PX0
      000000C8H.2 SFRSYM    DATA     BIT       TR2
      000000B8H.2 SFRSYM    DATA     BIT       PX1
      000000D0H   SFRSYM    DATA     BIT       PARITY
      00000083H   SFRSYM    DATA     BYTE      DPH
      000000C4H   SFRSYM    DATA     BYTE      ADC0GTH
      00000082H   SFRSYM    DATA     BYTE      DPL
      00000099H   SFRSYM    DATA     BYTE      SBUF0
      000000C3H   SFRSYM    DATA     BYTE      ADC0GTL
      000000A8H.6 SFRSYM    DATA     BIT       ESPI0
      000000D3H   SFRSYM    DATA     BYTE      SBUF1
      000000C6H   SFRSYM    DATA     BYTE      ADC0LTH
      000000EFH   SFRSYM    DATA     BYTE      RSTSRC
      00000098H   SFRSYM    DATA     BYTE      SCON0
      000000E5H   SFRSYM    DATA     BYTE      SMOD1
      000000D2H   SFRSYM    DATA     BYTE      SCON1
      000000BAH   SFRSYM    DATA     BYTE      AMX0N
      000000C5H   SFRSYM    DATA     BYTE      ADC0LTL
      000000BBH   SFRSYM    DATA     BYTE      AMX0P
      000000C0H.5 SFRSYM    DATA     BIT       STA
      000000B8H.6 SFRSYM    DATA     BIT       PSPI0
LX51 LINKER/LOCATER V4.09                                                             09/01/2010  15:06:34  PAGE 78


      000000C2H   SFRSYM    DATA     BYTE      SMB0DAT
      000000CDH   SFRSYM    DATA     BYTE      TMR2H
      000000A1H   SFRSYM    DATA     BYTE      SPI0CFG
      00000095H   SFRSYM    DATA     BYTE      TMR3H
      0000008EH   SFRSYM    DATA     BYTE      CKCON
      000000C8H.1 SFRSYM    DATA     BIT       T2CSS
      000000F0H   SFRSYM    DATA     BIT       B0
      000000F8H.4 SFRSYM    DATA     BIT       RXOVRN
      000000F0H.1 SFRSYM    DATA     BIT       B1
      000000CCH   SFRSYM    DATA     BYTE      TMR2L
      000000C0H.3 SFRSYM    DATA     BIT       ACKRQ
      000000F0H.2 SFRSYM    DATA     BIT       B2
      00000096H   SFRSYM    DATA     BYTE      USB0ADR
      00000094H   SFRSYM    DATA     BYTE      TMR3L
      000000F0H.3 SFRSYM    DATA     BIT       B3
      000000D0H.5 SFRSYM    DATA     BIT       F0
      000000F0H.4 SFRSYM    DATA     BIT       B4
      00000097H   SFRSYM    DATA     BYTE      USB0DAT
      000000B6H   SFRSYM    DATA     BYTE      FLSCL
      000000C0H.4 SFRSYM    DATA     BIT       STO
      000000D0H.1 SFRSYM    DATA     BIT       F1
      000000E8H   SFRSYM    DATA     BIT       AD0CM0
      000000F0H.5 SFRSYM    DATA     BIT       B5
      000000E0H   SFRSYM    DATA     BIT       ACC0
      000000E8H.1 SFRSYM    DATA     BIT       AD0CM1
      000000F0H.6 SFRSYM    DATA     BIT       B6
      000000A3H   SFRSYM    DATA     BYTE      SPI0DAT
      000000E0H.1 SFRSYM    DATA     BIT       ACC1
      000000E8H.2 SFRSYM    DATA     BIT       AD0CM2
      000000F0H.7 SFRSYM    DATA     BIT       B7
      000000E0H.2 SFRSYM    DATA     BIT       ACC2
      000000E8H.3 SFRSYM    DATA     BIT       AD0WINT
      000000E0H.3 SFRSYM    DATA     BIT       ACC3
      000000E8H.4 SFRSYM    DATA     BIT       AD0BUSY
      000000D0H   SFRSYM    DATA     BYTE      PSW
      000000E0H.4 SFRSYM    DATA     BIT       ACC4
      00000098H.2 SFRSYM    DATA     BIT       RB80
      000000D8H   SFRSYM    DATA     BIT       CCF0
      000000E0H.5 SFRSYM    DATA     BIT       ACC5
      000000B7H   SFRSYM    DATA     BYTE      FLKEY
      000000D8H.1 SFRSYM    DATA     BIT       CCF1
      000000E0H.6 SFRSYM    DATA     BIT       ACC6
      0200017FH   SYMBOL    XDATA    DWORD     sender_ipaddr

      01002614H   BLOCK     CODE     ---       LVL=0
      ---         BLOCKEND  ---      ---       LVL=0

      01002D10H   BLOCK     CODE     ---       LVL=0
      00000006H   SYMBOL    DATA     ---       inbuf
      00000002H   SYMBOL    DATA     WORD      len
      01002D10H   LINE      CODE     ---       #31
      01002D14H   LINE      CODE     ---       #32
      01002D14H   LINE      CODE     ---       #34
      ---         BLOCKEND  ---      ---       LVL=0

      01001736H   BLOCK     CODE     ---       LVL=0
      00000032H   SYMBOL    DATA     ---       inbuf
      00000034H   SYMBOL    DATA     WORD      port
      00000002H   SYMBOL    DATA     WORD      len
      0100173EH   BLOCK     CODE     NEAR LAB  LVL=1
      00000080H   SYMBOL    IDATA    DWORD     sum
      00000084H   SYMBOL    IDATA    WORD      result
      00000036H   SYMBOL    DATA     ---       outbuf
      00000038H   SYMBOL    DATA     ---       udp
      0000003AH   SYMBOL    DATA     ---       ip
LX51 LINKER/LOCATER V4.09                                                             09/01/2010  15:06:34  PAGE 79


      ---         BLOCKEND  ---      ---       LVL=1
      01001736H   LINE      CODE     ---       #43
      0100173EH   LINE      CODE     ---       #44
      0100173EH   LINE      CODE     ---       #60
      01001744H   LINE      CODE     ---       #61
      0100174FH   LINE      CODE     ---       #62
      0100175AH   LINE      CODE     ---       #65
      0100176EH   LINE      CODE     ---       #66
      0100177BH   LINE      CODE     ---       #67
      01001789H   LINE      CODE     ---       #68
      01001794H   LINE      CODE     ---       #72
      010017B5H   LINE      CODE     ---       #78
      010017C3H   LINE      CODE     ---       #79
      010017D0H   LINE      CODE     ---       #83
      010017EBH   LINE      CODE     ---       #87
      010017F3H   LINE      CODE     ---       #88
      010017FFH   LINE      CODE     ---       #91
      01001812H   LINE      CODE     ---       #92
      01001823H   LINE      CODE     ---       #93
      ---         BLOCKEND  ---      ---       LVL=0

      01001CF5H   BLOCK     CODE     ---       LVL=0
      0000002CH   SYMBOL    DATA     ---       inbuf
      00000004H   SYMBOL    DATA     WORD      len
      01001CF9H   BLOCK     CODE     NEAR LAB  LVL=1
      0000007AH   SYMBOL    IDATA    WORD      result
      0000002EH   SYMBOL    DATA     ---       udp
      00000030H   SYMBOL    DATA     ---       ip
      0000007CH   SYMBOL    IDATA    DWORD     sum
      ---         BLOCKEND  ---      ---       LVL=1
      01001CF5H   LINE      CODE     ---       #102
      01001CF9H   LINE      CODE     ---       #103
      01001CF9H   LINE      CODE     ---       #110
      01001D02H   LINE      CODE     ---       #111
      01001D0BH   LINE      CODE     ---       #117
      01001D1BH   LINE      CODE     ---       #121
      01001D28H   LINE      CODE     ---       #122
      01001D28H   LINE      CODE     ---       #123
      01001D28H   LINE      CODE     ---       #125
      01001D28H   LINE      CODE     ---       #128
      01001D3EH   LINE      CODE     ---       #132
      01001D46H   LINE      CODE     ---       #133
      01001D51H   LINE      CODE     ---       #136
      01001D64H   LINE      CODE     ---       #138
      01001D6BH   LINE      CODE     ---       #139
      01001D6BH   LINE      CODE     ---       #141
      01001D6BH   LINE      CODE     ---       #143
      01001D6BH   LINE      CODE     ---       #147
      01001D7DH   LINE      CODE     ---       #148
      01001D87H   LINE      CODE     ---       #151
      01001D9CH   LINE      CODE     ---       #152
      01001D9CH   LINE      CODE     ---       #153
      01001D9CH   LINE      CODE     ---       #155
      01001DB0H   LINE      CODE     ---       #156
      01001DB0H   LINE      CODE     ---       #158
      01001DB0H   LINE      CODE     ---       #161
      01001DC2H   LINE      CODE     ---       #162
      01001DC2H   LINE      CODE     ---       #163
      01001DC2H   LINE      CODE     ---       #164
      ---         BLOCKEND  ---      ---       LVL=0

      ---         MODULE    ---      ---       CKSUM
      01002094H   PUBLIC    CODE     ---       _cksum

      01002CE1H   BLOCK     CODE     ---       LVL=0
LX51 LINKER/LOCATER V4.09                                                             09/01/2010  15:06:34  PAGE 80


      ---         BLOCKEND  ---      ---       LVL=0

      01002094H   BLOCK     CODE     ---       LVL=0
      00000002H   SYMBOL    DATA     ---       check
      00000052H   SYMBOL    DATA     WORD      length
      0100209CH   BLOCK     CODE     NEAR LAB  LVL=1
      00000054H   SYMBOL    DATA     DWORD     sum
      00000002H   SYMBOL    DATA     WORD      i
      00000058H   SYMBOL    DATA     ---       ptr
      ---         BLOCKEND  ---      ---       LVL=1
      01002094H   LINE      CODE     ---       #17
      0100209CH   LINE      CODE     ---       #18
      0100209CH   LINE      CODE     ---       #19
      010020A5H   LINE      CODE     ---       #22
      010020A9H   LINE      CODE     ---       #23
      010020BBH   LINE      CODE     ---       #24
      010020BBH   LINE      CODE     ---       #25
      010020DBH   LINE      CODE     ---       #26
      010020E2H   LINE      CODE     ---       #27
      010020E7H   LINE      CODE     ---       #28
      010020E7H   LINE      CODE     ---       #29
      010020F8H   LINE      CODE     ---       #30
      010020F8H   LINE      CODE     ---       #31
      0100211FH   LINE      CODE     ---       #32
      01002128H   LINE      CODE     ---       #33
      01002128H   LINE      CODE     ---       #34
      0100213BH   LINE      CODE     ---       #35
      0100213BH   LINE      CODE     ---       #36
      01002141H   LINE      CODE     ---       #38
      ---         BLOCKEND  ---      ---       LVL=0

      ---         MODULE    ---      ---       WEBDOC1
      010032CDH   PUBLIC    CONST    ---       photo1_jpeg
      01003258H   PUBLIC    CONST    ---       jpeg_header
      01002D98H   PUBLIC    CONST    ---       web_page
      01002D24H   PUBLIC    CONST    ---       html_header

      ---         MODULE    ---      ---       CP220X_REG
      02003F2EH   PUBLIC    XDATA    BYTE      TLB1ADDRL
      02003F45H   PUBLIC    XDATA    BYTE      TLB5ADDRH
      02003F01H   PUBLIC    XDATA    BYTE      RXAUTORD
      02003F22H   PUBLIC    XDATA    BYTE      CPADDRL
      02003F28H   PUBLIC    XDATA    BYTE      TLB0ADDRL
      02003F3FH   PUBLIC    XDATA    BYTE      TLB4ADDRH
      02003F0DH   PUBLIC    XDATA    BYTE      MACRW
      02003F39H   PUBLIC    XDATA    BYTE      TLB3ADDRH
      02003F79H   PUBLIC    XDATA    BYTE      PHYCF
      02003F33H   PUBLIC    XDATA    BYTE      TLB2ADDRH
      02003F13H   PUBLIC    XDATA    BYTE      VDMCN
      02003F2DH   PUBLIC    XDATA    BYTE      TLB1ADDRH
      02003F56H   PUBLIC    XDATA    BYTE      TXPAUSEL
      02003F21H   PUBLIC    XDATA    BYTE      CPADDRH
      02003F27H   PUBLIC    XDATA    BYTE      TLB0ADDRH
      02003F1AH   PUBLIC    XDATA    BYTE      CPTLB
      02003F55H   PUBLIC    XDATA    BYTE      TXPAUSEH
      02003F54H   PUBLIC    XDATA    BYTE      TXBUSY
      02003F0AH   PUBLIC    XDATA    BYTE      MACADDR
      02003F73H   PUBLIC    XDATA    BYTE      RSTSTA
      02003F6AH   PUBLIC    XDATA    BYTE      FLASHERASE
      02003F7CH   PUBLIC    XDATA    BYTE      OSCPWR
      02003F10H   PUBLIC    XDATA    BYTE      RXFILT
      02003F80H   PUBLIC    XDATA    BYTE      PHYSTA
      02003F67H   PUBLIC    XDATA    BYTE      FLASHKEY
      02003F68H   PUBLIC    XDATA    BYTE      FLASHADDRL
      02003F7BH   PUBLIC    XDATA    BYTE      FLASHSTA
LX51 LINKER/LOCATER V4.09                                                             09/01/2010  15:06:34  PAGE 81


      02003F69H   PUBLIC    XDATA    BYTE      FLASHADDRH
      02003F1CH   PUBLIC    XDATA    BYTE      TLBVALID
      02003F58H   PUBLIC    XDATA    BYTE      TXENDL
      02003F57H   PUBLIC    XDATA    BYTE      TXENDH
      02003F5CH   PUBLIC    XDATA    BYTE      TXSTA6
      02003F5DH   PUBLIC    XDATA    BYTE      TXSTA5
      02003F09H   PUBLIC    XDATA    BYTE      RAMADDRL
      02003F5EH   PUBLIC    XDATA    BYTE      TXSTA4
      02003F16H   PUBLIC    XDATA    BYTE      RXFIFOTAILL
      02003F5FH   PUBLIC    XDATA    BYTE      TXSTA3
      02003F60H   PUBLIC    XDATA    BYTE      TXSTA2
      02003F50H   PUBLIC    XDATA    BYTE      TLB7LENL
      02003F61H   PUBLIC    XDATA    BYTE      TXSTA1
      02003F08H   PUBLIC    XDATA    BYTE      RAMADDRH
      02003F4AH   PUBLIC    XDATA    BYTE      TLB6LENL
      02003F62H   PUBLIC    XDATA    BYTE      TXSTA0
      02003F44H   PUBLIC    XDATA    BYTE      TLB5LENL
      02003F15H   PUBLIC    XDATA    BYTE      RXFIFOTAILH
      02003F3EH   PUBLIC    XDATA    BYTE      TLB4LENL
      02003F38H   PUBLIC    XDATA    BYTE      TLB3LENL
      02003F4FH   PUBLIC    XDATA    BYTE      TLB7LENH
      02003F05H   PUBLIC    XDATA    BYTE      FLASHAUTORD
      02003F32H   PUBLIC    XDATA    BYTE      TLB2LENL
      02003F49H   PUBLIC    XDATA    BYTE      TLB6LENH
      02003F2CH   PUBLIC    XDATA    BYTE      TLB1LENL
      02003F43H   PUBLIC    XDATA    BYTE      TLB5LENH
      02003F20H   PUBLIC    XDATA    BYTE      CPLENL
      02003F26H   PUBLIC    XDATA    BYTE      TLB0LENL
      02003F3DH   PUBLIC    XDATA    BYTE      TLB4LENH
      02003F37H   PUBLIC    XDATA    BYTE      TLB3LENH
      02003F31H   PUBLIC    XDATA    BYTE      TLB2LENH
      02003F53H   PUBLIC    XDATA    BYTE      TXCN
      02003F2BH   PUBLIC    XDATA    BYTE      TLB1LENH
      02003F11H   PUBLIC    XDATA    BYTE      RXCN
      02003F1FH   PUBLIC    XDATA    BYTE      CPLENH
      02003F25H   PUBLIC    XDATA    BYTE      TLB0LENH
      02003F0CH   PUBLIC    XDATA    BYTE      MACDATAL
      02003F5BH   PUBLIC    XDATA    BYTE      RXFIFOSTA
      02003F0BH   PUBLIC    XDATA    BYTE      MACDATAH
      02003F7EH   PUBLIC    XDATA    BYTE      INT1RD
      02003F76H   PUBLIC    XDATA    BYTE      INT0RD
      02003F7DH   PUBLIC    XDATA    BYTE      INT1EN
      02003F18H   PUBLIC    XDATA    BYTE      RXFIFOHEADL
      02003F64H   PUBLIC    XDATA    BYTE      INT0EN
      02003F17H   PUBLIC    XDATA    BYTE      RXFIFOHEADH
      02003F04H   PUBLIC    XDATA    BYTE      RAMTXDATA
      02003F02H   PUBLIC    XDATA    BYTE      RAMRXDATA
      02003F7AH   PUBLIC    XDATA    BYTE      TXPWR
      02003F75H   PUBLIC    XDATA    BYTE      SWRST
      02003F7FH   PUBLIC    XDATA    BYTE      INT1
      02003F0FH   PUBLIC    XDATA    BYTE      RXHASHL
      02003F63H   PUBLIC    XDATA    BYTE      INT0
      02003F0EH   PUBLIC    XDATA    BYTE      RXHASHH
      02003F4EH   PUBLIC    XDATA    BYTE      TLB7INFOL
      02003F12H   PUBLIC    XDATA    BYTE      RXSTA
      02003F48H   PUBLIC    XDATA    BYTE      TLB6INFOL
      02003F70H   PUBLIC    XDATA    BYTE      IOPWR
      02003F42H   PUBLIC    XDATA    BYTE      TLB5INFOL
      02003F3CH   PUBLIC    XDATA    BYTE      TLB4INFOL
      02003F03H   PUBLIC    XDATA    BYTE      TXAUTOWR
      02003F36H   PUBLIC    XDATA    BYTE      TLB3INFOL
      02003F4DH   PUBLIC    XDATA    BYTE      TLB7INFOH
      02003F30H   PUBLIC    XDATA    BYTE      TLB2INFOL
      02003F47H   PUBLIC    XDATA    BYTE      TLB6INFOH
      02003F2AH   PUBLIC    XDATA    BYTE      TLB1INFOL
LX51 LINKER/LOCATER V4.09                                                             09/01/2010  15:06:34  PAGE 82


      02003F41H   PUBLIC    XDATA    BYTE      TLB5INFOH
      02003F72H   PUBLIC    XDATA    BYTE      RSTEN
      02003F1EH   PUBLIC    XDATA    BYTE      CPINFOL
      02003F24H   PUBLIC    XDATA    BYTE      TLB0INFOL
      02003F3BH   PUBLIC    XDATA    BYTE      TLB4INFOH
      02003F35H   PUBLIC    XDATA    BYTE      TLB3INFOH
      02003F06H   PUBLIC    XDATA    BYTE      FLASHDATA
      02003F2FH   PUBLIC    XDATA    BYTE      TLB2INFOH
      02003F29H   PUBLIC    XDATA    BYTE      TLB1INFOH
      02003F1DH   PUBLIC    XDATA    BYTE      CPINFOH
      02003F23H   PUBLIC    XDATA    BYTE      TLB0INFOH
      02003F5AH   PUBLIC    XDATA    BYTE      TXSTARTL
      02003F59H   PUBLIC    XDATA    BYTE      TXSTARTH
      02003F52H   PUBLIC    XDATA    BYTE      TLB7ADDRL
      02003F78H   PUBLIC    XDATA    BYTE      PHYCN
      02003F4CH   PUBLIC    XDATA    BYTE      TLB6ADDRL
      02003F46H   PUBLIC    XDATA    BYTE      TLB5ADDRL
      02003F40H   PUBLIC    XDATA    BYTE      TLB4ADDRL
      02003F3AH   PUBLIC    XDATA    BYTE      TLB3ADDRL
      02003F51H   PUBLIC    XDATA    BYTE      TLB7ADDRH
      02003F34H   PUBLIC    XDATA    BYTE      TLB2ADDRL
      02003F4BH   PUBLIC    XDATA    BYTE      TLB6ADDRH

      ---         MODULE    ---      ---       ?C?FPMUL
      0100002EH   PUBLIC    CODE     ---       ?C?FPMUL

      ---         MODULE    ---      ---       ?C?FPDIV
      01000137H   PUBLIC    CODE     ---       ?C?FPDIV

      ---         MODULE    ---      ---       ?C?FCAST
      010001DEH   PUBLIC    CODE     ---       ?C?FCASTC
      010001D9H   PUBLIC    CODE     ---       ?C?FCASTI
      010001D4H   PUBLIC    CODE     ---       ?C?FCASTL

      ---         MODULE    ---      ---       ?C?CASTF
      01000212H   PUBLIC    CODE     ---       ?C?CASTF

      ---         MODULE    ---      ---       ?C?FPGETOPN
      01000249H   PUBLIC    CODE     ---       ?C?FPGETOPN2
      0100027EH   PUBLIC    CODE     ---       ?C?FPNANRESULT
      01000288H   PUBLIC    CODE     ---       ?C?FPOVERFLOW
      01000260H   PUBLIC    CODE     ---       ?C?FPRESULT
      01000274H   PUBLIC    CODE     ---       ?C?FPRESULT2
      01000285H   PUBLIC    CODE     ---       ?C?FPUNDERFLOW

      ---         MODULE    ---      ---       ?C_STARTUP
      01000000H   PUBLIC    CODE     ---       ?C_STARTUP

      ---         MODULE    ---      ---       ?C?COPY
      01000363H   PUBLIC    CODE     ---       ?C?COPY

      ---         MODULE    ---      ---       ?C?CLDPTR
      01000389H   PUBLIC    CODE     ---       ?C?CLDPTR

      ---         MODULE    ---      ---       ?C?CLDOPTR
      010003A2H   PUBLIC    CODE     ---       ?C?CLDOPTR

      ---         MODULE    ---      ---       ?C?CSTPTR
      010003CFH   PUBLIC    CODE     ---       ?C?CSTPTR

      ---         MODULE    ---      ---       ?C?CSTOPTR
      010003E1H   PUBLIC    CODE     ---       ?C?CSTOPTR

      ---         MODULE    ---      ---       ?C?IMUL
      01000403H   PUBLIC    CODE     ---       ?C?IMUL
LX51 LINKER/LOCATER V4.09                                                             09/01/2010  15:06:34  PAGE 83



      ---         MODULE    ---      ---       ?C?UIDIV
      01000415H   PUBLIC    CODE     ---       ?C?UIDIV

      ---         MODULE    ---      ---       ?C?SIDIV
      0100046AH   PUBLIC    CODE     ---       ?C?SIDIV

      ---         MODULE    ---      ---       ?C?LNEG
      010004A0H   PUBLIC    CODE     ---       ?C?LNEG

      ---         MODULE    ---      ---       ?C?ULCMP
      010004AEH   PUBLIC    CODE     ---       ?C?ULCMP

      ---         MODULE    ---      ---       ?C?ULSHR
      010004BFH   PUBLIC    CODE     ---       ?C?ULSHR

      ---         MODULE    ---      ---       ?C?LLDOPTR
      010004D2H   PUBLIC    CODE     ---       ?C?LLDOPTR

      ---         MODULE    ---      ---       ?C?LLDIDATA
      01000502H   PUBLIC    CODE     ---       ?C?LLDIDATA

      ---         MODULE    ---      ---       ?C?LLDCODE
      0100050EH   PUBLIC    CODE     ---       ?C?LLDCODE

      ---         MODULE    ---      ---       ?C?LLDIDATA0
      0100051EH   PUBLIC    CODE     ---       ?C?LLDIDATA0

      ---         MODULE    ---      ---       ?C?LLDCODE0
      0100052BH   PUBLIC    CODE     ---       ?C?LLDCODE0

      ---         MODULE    ---      ---       ?C?LSTIDATA
      0100053BH   PUBLIC    CODE     ---       ?C?LSTIDATA

      ---         MODULE    ---      ---       ?C?LSTXDATA
      01000547H   PUBLIC    CODE     ---       ?C?LSTXDATA

      ---         MODULE    ---      ---       ?C?LSTKIDATA
      01000553H   PUBLIC    CODE     ---       ?C?LSTKIDATA

      ---         MODULE    ---      ---       ?C?LSTKXDATA
      0100056CH   PUBLIC    CODE     ---       ?C?LSTKXDATA

      ---         MODULE    ---      ---       ?C?ICASE
      0100059DH   PUBLIC    CODE     ---       ?C?ICASE

      ---         MODULE    ---      ---       STRLEN
      0100000EH   PUBLIC    CODE     ---       _STRLEN

      ---         MODULE    ---      ---       ?C?MEMSET
      010005CAH   PUBLIC    CODE     ---       ?C?MEMSET

      ---         MODULE    ---      ---       ?C?MEMMOVE
      01000770H   PUBLIC    CODE     ---       ?C?MEMMOVE

      ---         MODULE    ---      ---       ?C_INIT
      0100254CH   PUBLIC    CODE     ---       ?C_START

      ---         MODULE    ---      ---       ?C?LLDXDATA
      01000798H   PUBLIC    CODE     ---       ?C?LLDXDATA

      ---         MODULE    ---      ---       ?C?LLDPDATA
      010007A4H   PUBLIC    CODE     ---       ?C?LLDPDATA

Program Size: data=179.3 xdata=3503 const=22132 code=11554
LX51 LINKER/LOCATER V4.09                                                             09/01/2010  15:06:34  PAGE 84


LX51 RUN COMPLETE.  0 WARNING(S),  0 ERROR(S)
